<?xml version="1.0" encoding="utf-8"?>
<?xml-stylesheet type="text/xsl" href="pdml2html.xsl"?>
<!-- You can find pdml2html.xsl in /usr/share/wireshark or at https://gitlab.com/wireshark/wireshark/-/raw/master/pdml2html.xsl. -->
<pdml version="0" creator="wireshark/4.0.3" time="Mon Jul 31 16:27:14 2023" capture_file="/tmp/wireshark_usbmon1CPAZ81.pcapng">
<packet>
  <proto name="geninfo" pos="0" showname="General information" size="72">
    <field name="num" pos="0" show="483" showname="Number" value="1e3" size="72"/>
    <field name="len" pos="0" show="72" showname="Frame Length" value="48" size="72"/>
    <field name="caplen" pos="0" show="72" showname="Captured Length" value="48" size="72"/>
    <field name="timestamp" pos="0" show="Jul 31, 2023 16:24:23.223190000 EDT" showname="Captured Time" value="1690835063.223190000" size="72"/>
  </proto>
  <proto name="frame" showname="Frame 483: 72 bytes on wire (576 bits), 72 bytes captured (576 bits) on interface usbmon1, id 0" size="72" pos="0">
    <field name="frame.section_number" showname="Section number: 1" size="0" pos="0" show="1"/>
    <field name="frame.interface_id" showname="Interface id: 0 (usbmon1)" size="0" pos="0" show="0">
      <field name="frame.interface_name" showname="Interface name: usbmon1" size="0" pos="0" show="usbmon1"/>
    </field>
    <field name="frame.encap_type" showname="Encapsulation type: USB packets with Linux header and padding (115)" size="0" pos="0" show="115"/>
    <field name="frame.time" showname="Arrival Time: Jul 31, 2023 16:24:23.223190000 EDT" size="0" pos="0" show="Jul 31, 2023 16:24:23.223190000 EDT"/>
    <field name="frame.offset_shift" showname="Time shift for this packet: 0.000000000 seconds" size="0" pos="0" show="0.000000000"/>
    <field name="frame.time_epoch" showname="Epoch Time: 1690835063.223190000 seconds" size="0" pos="0" show="1690835063.223190000"/>
    <field name="frame.time_delta" showname="Time delta from previous captured frame: 0.009448000 seconds" size="0" pos="0" show="0.009448000"/>
    <field name="frame.time_delta_displayed" showname="Time delta from previous displayed frame: 0.000000000 seconds" size="0" pos="0" show="0.000000000"/>
    <field name="frame.time_relative" showname="Time since reference or first frame: 8.089650000 seconds" size="0" pos="0" show="8.089650000"/>
    <field name="frame.number" showname="Frame Number: 483" size="0" pos="0" show="483"/>
    <field name="frame.len" showname="Frame Length: 72 bytes (576 bits)" size="0" pos="0" show="72"/>
    <field name="frame.cap_len" showname="Capture Length: 72 bytes (576 bits)" size="0" pos="0" show="72"/>
    <field name="frame.marked" showname="Frame is marked: False" size="0" pos="0" show="0"/>
    <field name="frame.ignored" showname="Frame is ignored: False" size="0" pos="0" show="0"/>
    <field name="frame.protocols" showname="Protocols in frame: usb" size="0" pos="0" show="usb"/>
  </proto>
  <proto name="usb" showname="USB URB" size="64" pos="0">
    <field name="usb.src" showname="Source: host" size="0" pos="0" show="host"/>
    <field name="usb.addr" showname="Source or Destination: host" hide="yes" size="0" pos="0" show="host"/>
    <field name="usb.dst" showname="Destination: 1.14.2" size="0" pos="0" show="1.14.2"/>
    <field name="usb.addr" showname="Source or Destination: 1.14.2" hide="yes" size="0" pos="0" show="1.14.2"/>
    <field name="usb.urb_id" showname="URB id: 0xffffa0f810db4d80" size="8" pos="0" show="0xffffa0f810db4d80" value="804ddb10f8a0ffff"/>
    <field name="usb.urb_type" showname="URB type: URB_SUBMIT (&#x27;S&#x27;)" size="1" pos="8" show="&#x27;S&#x27;" value="53"/>
    <field name="usb.transfer_type" showname="URB transfer type: URB_BULK (0x03)" size="1" pos="9" show="0x03" value="03"/>
    <field name="usb.endpoint_address" showname="Endpoint: 0x02, Direction: OUT" size="1" pos="10" show="0x02" value="02">
      <field name="usb.endpoint_address.direction" showname="0... .... = Direction: OUT (0)" size="1" pos="10" show="0" value="0" unmaskedvalue="02"/>
      <field name="usb.endpoint_address.number" showname=".... 0010 = Endpoint number: 2" size="1" pos="10" show="2" value="2" unmaskedvalue="02"/>
    </field>
    <field name="usb.device_address" showname="Device: 14" size="1" pos="11" show="14" value="0e"/>
    <field name="usb.bus_id" showname="URB bus id: 1" size="2" pos="12" show="1" value="0100"/>
    <field name="usb.setup_flag" showname="Device setup request: not relevant (&#x27;-&#x27;)" size="1" pos="14" show="&#x27;-&#x27;" value="2d"/>
    <field name="usb.data_flag" showname="Data: present (&#x27;\0&#x27;)" size="1" pos="15" show="&#x27;\0&#x27;" value="00"/>
    <field name="usb.urb_ts_sec" showname="URB sec: 1690835063" size="8" pos="16" show="1690835063" value="7718c86400000000"/>
    <field name="usb.urb_ts_usec" showname="URB usec: 223190" size="4" pos="24" show="223190" value="d6670300"/>
    <field name="usb.urb_status" showname="URB status: Operation now in progress (-EINPROGRESS) (-115)" size="4" pos="28" show="-115" value="8dffffff"/>
    <field name="usb.urb_len" showname="URB length [bytes]: 8" size="4" pos="32" show="8" value="08000000"/>
    <field name="usb.data_len" showname="Data length [bytes]: 8" size="4" pos="36" show="8" value="08000000"/>
    <field name="usb.response_in" showname="Response in: 484" size="0" pos="0" show="484"/>
    <field name="usb.bInterfaceClass" showname="bInterfaceClass: Unknown (0xffff)" size="0" pos="0" show="0xff"/>
    <field name="usb.unused_setup_header" showname="Unused Setup Header" size="8" pos="40" show="" value=""/>
    <field name="usb.interval" showname="Interval: 0" size="4" pos="48" show="0" value="00000000"/>
    <field name="usb.start_frame" showname="Start frame: 0" size="4" pos="52" show="0" value="00000000"/>
    <field name="usb.copy_of_transfer_flags" showname="Copy of Transfer Flags: 0x00000000" size="4" pos="56" show="0x00000000" value="00000000">
      <field name="usb.transfer_flags.short_not_ok" showname=".... .... .... .... .... .... .... ...0 = Short not OK: False" size="4" pos="56" show="0" value="0" unmaskedvalue="00000000"/>
      <field name="usb.transfer_flags.iso_asap" showname=".... .... .... .... .... .... .... ..0. = ISO ASAP: False" size="4" pos="56" show="0" value="0" unmaskedvalue="00000000"/>
      <field name="usb.transfer_flags.no_transfer_dma_map" showname=".... .... .... .... .... .... .... .0.. = No transfer DMA map: False" size="4" pos="56" show="0" value="0" unmaskedvalue="00000000"/>
      <field name="usb.transfer_flags.no_fsbr" showname=".... .... .... .... .... .... ..0. .... = No FSBR: False" size="4" pos="56" show="0" value="0" unmaskedvalue="00000000"/>
      <field name="usb.transfer_flags.zero_packet" showname=".... .... .... .... .... .... .0.. .... = Zero Packet: False" size="4" pos="56" show="0" value="0" unmaskedvalue="00000000"/>
      <field name="usb.transfer_flags.no_interrupt" showname=".... .... .... .... .... .... 0... .... = No Interrupt: False" size="4" pos="56" show="0" value="0" unmaskedvalue="00000000"/>
      <field name="usb.transfer_flags.free_buffer" showname=".... .... .... .... .... ...0 .... .... = Free Buffer: False" size="4" pos="56" show="0" value="0" unmaskedvalue="00000000"/>
      <field name="usb.transfer_flags.dir_in" showname=".... .... .... .... .... ..0. .... .... = Dir IN: False" size="4" pos="56" show="0" value="0" unmaskedvalue="00000000"/>
      <field name="usb.transfer_flags.dma_map_single" showname=".... .... .... ...0 .... .... .... .... = DMA Map Single: False" size="4" pos="56" show="0" value="0" unmaskedvalue="00000000"/>
      <field name="usb.transfer_flags.dma_map_page" showname=".... .... .... ..0. .... .... .... .... = DMA Map Page: False" size="4" pos="56" show="0" value="0" unmaskedvalue="00000000"/>
      <field name="usb.transfer_flags.dma_map_sg" showname=".... .... .... .0.. .... .... .... .... = DMA Map SG: False" size="4" pos="56" show="0" value="0" unmaskedvalue="00000000"/>
      <field name="usb.transfer_flags.map_local" showname=".... .... .... 0... .... .... .... .... = Map Local: False" size="4" pos="56" show="0" value="0" unmaskedvalue="00000000"/>
      <field name="usb.transfer_flags.setup_map_single" showname=".... .... ...0 .... .... .... .... .... = Setup Map Single: False" size="4" pos="56" show="0" value="0" unmaskedvalue="00000000"/>
      <field name="usb.transfer_flags.setup_map_local" showname=".... .... ..0. .... .... .... .... .... = Setup Map Local: False" size="4" pos="56" show="0" value="0" unmaskedvalue="00000000"/>
      <field name="usb.transfer_flags.dma_sg_combined" showname=".... .... .0.. .... .... .... .... .... = DMA S-G Combined: False" size="4" pos="56" show="0" value="0" unmaskedvalue="00000000"/>
      <field name="usb.transfer_flags.aligned_temp_buffer" showname=".... .... 0... .... .... .... .... .... = Aligned Temp Buffer: False" size="4" pos="56" show="0" value="0" unmaskedvalue="00000000"/>
    </field>
    <field name="usb.iso.numdesc" showname="Number of ISO descriptors: 0" size="4" pos="60" show="0" value="00000000"/>
  </proto>
  <proto name="fake-field-wrapper">
    <field name="usb.capdata" showname="Leftover Capture Data: 3f060004012d0d58" size="8" pos="64" show="3f:06:00:04:01:2d:0d:58" value="3f060004012d0d58"/>
  </proto>
</packet>

<packet>
  <proto name="geninfo" pos="0" showname="General information" size="64">
    <field name="num" pos="0" show="484" showname="Number" value="1e4" size="64"/>
    <field name="len" pos="0" show="64" showname="Frame Length" value="40" size="64"/>
    <field name="caplen" pos="0" show="64" showname="Captured Length" value="40" size="64"/>
    <field name="timestamp" pos="0" show="Jul 31, 2023 16:24:23.223254000 EDT" showname="Captured Time" value="1690835063.223254000" size="64"/>
  </proto>
  <proto name="frame" showname="Frame 484: 64 bytes on wire (512 bits), 64 bytes captured (512 bits) on interface usbmon1, id 0" size="64" pos="0">
    <field name="frame.section_number" showname="Section number: 1" size="0" pos="0" show="1"/>
    <field name="frame.interface_id" showname="Interface id: 0 (usbmon1)" size="0" pos="0" show="0">
      <field name="frame.interface_name" showname="Interface name: usbmon1" size="0" pos="0" show="usbmon1"/>
    </field>
    <field name="frame.encap_type" showname="Encapsulation type: USB packets with Linux header and padding (115)" size="0" pos="0" show="115"/>
    <field name="frame.time" showname="Arrival Time: Jul 31, 2023 16:24:23.223254000 EDT" size="0" pos="0" show="Jul 31, 2023 16:24:23.223254000 EDT"/>
    <field name="frame.offset_shift" showname="Time shift for this packet: 0.000000000 seconds" size="0" pos="0" show="0.000000000"/>
    <field name="frame.time_epoch" showname="Epoch Time: 1690835063.223254000 seconds" size="0" pos="0" show="1690835063.223254000"/>
    <field name="frame.time_delta" showname="Time delta from previous captured frame: 0.000064000 seconds" size="0" pos="0" show="0.000064000"/>
    <field name="frame.time_delta_displayed" showname="Time delta from previous displayed frame: 0.000064000 seconds" size="0" pos="0" show="0.000064000"/>
    <field name="frame.time_relative" showname="Time since reference or first frame: 8.089714000 seconds" size="0" pos="0" show="8.089714000"/>
    <field name="frame.number" showname="Frame Number: 484" size="0" pos="0" show="484"/>
    <field name="frame.len" showname="Frame Length: 64 bytes (512 bits)" size="0" pos="0" show="64"/>
    <field name="frame.cap_len" showname="Capture Length: 64 bytes (512 bits)" size="0" pos="0" show="64"/>
    <field name="frame.marked" showname="Frame is marked: False" size="0" pos="0" show="0"/>
    <field name="frame.ignored" showname="Frame is ignored: False" size="0" pos="0" show="0"/>
    <field name="frame.protocols" showname="Protocols in frame: usb" size="0" pos="0" show="usb"/>
  </proto>
  <proto name="usb" showname="USB URB" size="64" pos="0">
    <field name="usb.src" showname="Source: 1.14.2" size="0" pos="0" show="1.14.2"/>
    <field name="usb.addr" showname="Source or Destination: 1.14.2" hide="yes" size="0" pos="0" show="1.14.2"/>
    <field name="usb.dst" showname="Destination: host" size="0" pos="0" show="host"/>
    <field name="usb.addr" showname="Source or Destination: host" hide="yes" size="0" pos="0" show="host"/>
    <field name="usb.urb_id" showname="URB id: 0xffffa0f810db4d80" size="8" pos="0" show="0xffffa0f810db4d80" value="804ddb10f8a0ffff"/>
    <field name="usb.urb_type" showname="URB type: URB_COMPLETE (&#x27;C&#x27;)" size="1" pos="8" show="&#x27;C&#x27;" value="43"/>
    <field name="usb.transfer_type" showname="URB transfer type: URB_BULK (0x03)" size="1" pos="9" show="0x03" value="03"/>
    <field name="usb.endpoint_address" showname="Endpoint: 0x02, Direction: OUT" size="1" pos="10" show="0x02" value="02">
      <field name="usb.endpoint_address.direction" showname="0... .... = Direction: OUT (0)" size="1" pos="10" show="0" value="0" unmaskedvalue="02"/>
      <field name="usb.endpoint_address.number" showname=".... 0010 = Endpoint number: 2" size="1" pos="10" show="2" value="2" unmaskedvalue="02"/>
    </field>
    <field name="usb.device_address" showname="Device: 14" size="1" pos="11" show="14" value="0e"/>
    <field name="usb.bus_id" showname="URB bus id: 1" size="2" pos="12" show="1" value="0100"/>
    <field name="usb.setup_flag" showname="Device setup request: not relevant (&#x27;-&#x27;)" size="1" pos="14" show="&#x27;-&#x27;" value="2d"/>
    <field name="usb.data_flag" showname="Data: not present (&#x27;&gt;&#x27;)" size="1" pos="15" show="&#x27;&gt;&#x27;" value="3e"/>
    <field name="usb.urb_ts_sec" showname="URB sec: 1690835063" size="8" pos="16" show="1690835063" value="7718c86400000000"/>
    <field name="usb.urb_ts_usec" showname="URB usec: 223254" size="4" pos="24" show="223254" value="16680300"/>
    <field name="usb.urb_status" showname="URB status: Success (0)" size="4" pos="28" show="0" value="00000000"/>
    <field name="usb.urb_len" showname="URB length [bytes]: 8" size="4" pos="32" show="8" value="08000000"/>
    <field name="usb.data_len" showname="Data length [bytes]: 0" size="4" pos="36" show="0" value="00000000"/>
    <field name="usb.request_in" showname="Request in: 483" size="0" pos="0" show="483"/>
    <field name="usb.time" showname="Time from request: 0.000064000 seconds" size="0" pos="0" show="0.000064000"/>
    <field name="usb.bInterfaceClass" showname="bInterfaceClass: Unknown (0xffff)" size="0" pos="0" show="0xff"/>
    <field name="usb.unused_setup_header" showname="Unused Setup Header" size="8" pos="40" show="" value=""/>
    <field name="usb.interval" showname="Interval: 0" size="4" pos="48" show="0" value="00000000"/>
    <field name="usb.start_frame" showname="Start frame: 0" size="4" pos="52" show="0" value="00000000"/>
    <field name="usb.copy_of_transfer_flags" showname="Copy of Transfer Flags: 0x00000000" size="4" pos="56" show="0x00000000" value="00000000">
      <field name="usb.transfer_flags.short_not_ok" showname=".... .... .... .... .... .... .... ...0 = Short not OK: False" size="4" pos="56" show="0" value="0" unmaskedvalue="00000000"/>
      <field name="usb.transfer_flags.iso_asap" showname=".... .... .... .... .... .... .... ..0. = ISO ASAP: False" size="4" pos="56" show="0" value="0" unmaskedvalue="00000000"/>
      <field name="usb.transfer_flags.no_transfer_dma_map" showname=".... .... .... .... .... .... .... .0.. = No transfer DMA map: False" size="4" pos="56" show="0" value="0" unmaskedvalue="00000000"/>
      <field name="usb.transfer_flags.no_fsbr" showname=".... .... .... .... .... .... ..0. .... = No FSBR: False" size="4" pos="56" show="0" value="0" unmaskedvalue="00000000"/>
      <field name="usb.transfer_flags.zero_packet" showname=".... .... .... .... .... .... .0.. .... = Zero Packet: False" size="4" pos="56" show="0" value="0" unmaskedvalue="00000000"/>
      <field name="usb.transfer_flags.no_interrupt" showname=".... .... .... .... .... .... 0... .... = No Interrupt: False" size="4" pos="56" show="0" value="0" unmaskedvalue="00000000"/>
      <field name="usb.transfer_flags.free_buffer" showname=".... .... .... .... .... ...0 .... .... = Free Buffer: False" size="4" pos="56" show="0" value="0" unmaskedvalue="00000000"/>
      <field name="usb.transfer_flags.dir_in" showname=".... .... .... .... .... ..0. .... .... = Dir IN: False" size="4" pos="56" show="0" value="0" unmaskedvalue="00000000"/>
      <field name="usb.transfer_flags.dma_map_single" showname=".... .... .... ...0 .... .... .... .... = DMA Map Single: False" size="4" pos="56" show="0" value="0" unmaskedvalue="00000000"/>
      <field name="usb.transfer_flags.dma_map_page" showname=".... .... .... ..0. .... .... .... .... = DMA Map Page: False" size="4" pos="56" show="0" value="0" unmaskedvalue="00000000"/>
      <field name="usb.transfer_flags.dma_map_sg" showname=".... .... .... .0.. .... .... .... .... = DMA Map SG: False" size="4" pos="56" show="0" value="0" unmaskedvalue="00000000"/>
      <field name="usb.transfer_flags.map_local" showname=".... .... .... 0... .... .... .... .... = Map Local: False" size="4" pos="56" show="0" value="0" unmaskedvalue="00000000"/>
      <field name="usb.transfer_flags.setup_map_single" showname=".... .... ...0 .... .... .... .... .... = Setup Map Single: False" size="4" pos="56" show="0" value="0" unmaskedvalue="00000000"/>
      <field name="usb.transfer_flags.setup_map_local" showname=".... .... ..0. .... .... .... .... .... = Setup Map Local: False" size="4" pos="56" show="0" value="0" unmaskedvalue="00000000"/>
      <field name="usb.transfer_flags.dma_sg_combined" showname=".... .... .0.. .... .... .... .... .... = DMA S-G Combined: False" size="4" pos="56" show="0" value="0" unmaskedvalue="00000000"/>
      <field name="usb.transfer_flags.aligned_temp_buffer" showname=".... .... 0... .... .... .... .... .... = Aligned Temp Buffer: False" size="4" pos="56" show="0" value="0" unmaskedvalue="00000000"/>
    </field>
    <field name="usb.iso.numdesc" showname="Number of ISO descriptors: 0" size="4" pos="60" show="0" value="00000000"/>
  </proto>
</packet>

<packet>
  <proto name="geninfo" pos="0" showname="General information" size="65">
    <field name="num" pos="0" show="485" showname="Number" value="1e5" size="65"/>
    <field name="len" pos="0" show="65" showname="Frame Length" value="41" size="65"/>
    <field name="caplen" pos="0" show="65" showname="Captured Length" value="41" size="65"/>
    <field name="timestamp" pos="0" show="Jul 31, 2023 16:24:23.228975000 EDT" showname="Captured Time" value="1690835063.228975000" size="65"/>
  </proto>
  <proto name="frame" showname="Frame 485: 65 bytes on wire (520 bits), 65 bytes captured (520 bits) on interface usbmon1, id 0" size="65" pos="0">
    <field name="frame.section_number" showname="Section number: 1" size="0" pos="0" show="1"/>
    <field name="frame.interface_id" showname="Interface id: 0 (usbmon1)" size="0" pos="0" show="0">
      <field name="frame.interface_name" showname="Interface name: usbmon1" size="0" pos="0" show="usbmon1"/>
    </field>
    <field name="frame.encap_type" showname="Encapsulation type: USB packets with Linux header and padding (115)" size="0" pos="0" show="115"/>
    <field name="frame.time" showname="Arrival Time: Jul 31, 2023 16:24:23.228975000 EDT" size="0" pos="0" show="Jul 31, 2023 16:24:23.228975000 EDT"/>
    <field name="frame.offset_shift" showname="Time shift for this packet: 0.000000000 seconds" size="0" pos="0" show="0.000000000"/>
    <field name="frame.time_epoch" showname="Epoch Time: 1690835063.228975000 seconds" size="0" pos="0" show="1690835063.228975000"/>
    <field name="frame.time_delta" showname="Time delta from previous captured frame: 0.005721000 seconds" size="0" pos="0" show="0.005721000"/>
    <field name="frame.time_delta_displayed" showname="Time delta from previous displayed frame: 0.005721000 seconds" size="0" pos="0" show="0.005721000"/>
    <field name="frame.time_relative" showname="Time since reference or first frame: 8.095435000 seconds" size="0" pos="0" show="8.095435000"/>
    <field name="frame.number" showname="Frame Number: 485" size="0" pos="0" show="485"/>
    <field name="frame.len" showname="Frame Length: 65 bytes (520 bits)" size="0" pos="0" show="65"/>
    <field name="frame.cap_len" showname="Capture Length: 65 bytes (520 bits)" size="0" pos="0" show="65"/>
    <field name="frame.marked" showname="Frame is marked: False" size="0" pos="0" show="0"/>
    <field name="frame.ignored" showname="Frame is ignored: False" size="0" pos="0" show="0"/>
    <field name="frame.protocols" showname="Protocols in frame: usb" size="0" pos="0" show="usb"/>
  </proto>
  <proto name="usb" showname="USB URB" size="64" pos="0">
    <field name="usb.src" showname="Source: 1.14.3" size="0" pos="0" show="1.14.3"/>
    <field name="usb.addr" showname="Source or Destination: 1.14.3" hide="yes" size="0" pos="0" show="1.14.3"/>
    <field name="usb.dst" showname="Destination: host" size="0" pos="0" show="host"/>
    <field name="usb.addr" showname="Source or Destination: host" hide="yes" size="0" pos="0" show="host"/>
    <field name="usb.urb_id" showname="URB id: 0xffffa0f810db52c0" size="8" pos="0" show="0xffffa0f810db52c0" value="c052db10f8a0ffff"/>
    <field name="usb.urb_type" showname="URB type: URB_COMPLETE (&#x27;C&#x27;)" size="1" pos="8" show="&#x27;C&#x27;" value="43"/>
    <field name="usb.transfer_type" showname="URB transfer type: URB_BULK (0x03)" size="1" pos="9" show="0x03" value="03"/>
    <field name="usb.endpoint_address" showname="Endpoint: 0x83, Direction: IN" size="1" pos="10" show="0x83" value="83">
      <field name="usb.endpoint_address.direction" showname="1... .... = Direction: IN (1)" size="1" pos="10" show="1" value="1" unmaskedvalue="83"/>
      <field name="usb.endpoint_address.number" showname=".... 0011 = Endpoint number: 3" size="1" pos="10" show="3" value="3" unmaskedvalue="83"/>
    </field>
    <field name="usb.device_address" showname="Device: 14" size="1" pos="11" show="14" value="0e"/>
    <field name="usb.bus_id" showname="URB bus id: 1" size="2" pos="12" show="1" value="0100"/>
    <field name="usb.setup_flag" showname="Device setup request: not relevant (&#x27;-&#x27;)" size="1" pos="14" show="&#x27;-&#x27;" value="2d"/>
    <field name="usb.data_flag" showname="Data: present (&#x27;\0&#x27;)" size="1" pos="15" show="&#x27;\0&#x27;" value="00"/>
    <field name="usb.urb_ts_sec" showname="URB sec: 1690835063" size="8" pos="16" show="1690835063" value="7718c86400000000"/>
    <field name="usb.urb_ts_usec" showname="URB usec: 228975" size="4" pos="24" show="228975" value="6f7e0300"/>
    <field name="usb.urb_status" showname="URB status: Success (0)" size="4" pos="28" show="0" value="00000000"/>
    <field name="usb.urb_len" showname="URB length [bytes]: 1" size="4" pos="32" show="1" value="01000000"/>
    <field name="usb.data_len" showname="Data length [bytes]: 1" size="4" pos="36" show="1" value="01000000"/>
    <field name="usb.bInterfaceClass" showname="bInterfaceClass: Unknown (0xffff)" size="0" pos="0" show="0xff"/>
    <field name="usb.unused_setup_header" showname="Unused Setup Header" size="8" pos="40" show="" value=""/>
    <field name="usb.interval" showname="Interval: 0" size="4" pos="48" show="0" value="00000000"/>
    <field name="usb.start_frame" showname="Start frame: 0" size="4" pos="52" show="0" value="00000000"/>
    <field name="usb.copy_of_transfer_flags" showname="Copy of Transfer Flags: 0x00000200, Dir IN" size="4" pos="56" show="0x00000200" value="00020000">
      <field name="usb.transfer_flags.short_not_ok" showname=".... .... .... .... .... .... .... ...0 = Short not OK: False" size="4" pos="56" show="0" value="0" unmaskedvalue="00020000"/>
      <field name="usb.transfer_flags.iso_asap" showname=".... .... .... .... .... .... .... ..0. = ISO ASAP: False" size="4" pos="56" show="0" value="0" unmaskedvalue="00020000"/>
      <field name="usb.transfer_flags.no_transfer_dma_map" showname=".... .... .... .... .... .... .... .0.. = No transfer DMA map: False" size="4" pos="56" show="0" value="0" unmaskedvalue="00020000"/>
      <field name="usb.transfer_flags.no_fsbr" showname=".... .... .... .... .... .... ..0. .... = No FSBR: False" size="4" pos="56" show="0" value="0" unmaskedvalue="00020000"/>
      <field name="usb.transfer_flags.zero_packet" showname=".... .... .... .... .... .... .0.. .... = Zero Packet: False" size="4" pos="56" show="0" value="0" unmaskedvalue="00020000"/>
      <field name="usb.transfer_flags.no_interrupt" showname=".... .... .... .... .... .... 0... .... = No Interrupt: False" size="4" pos="56" show="0" value="0" unmaskedvalue="00020000"/>
      <field name="usb.transfer_flags.free_buffer" showname=".... .... .... .... .... ...0 .... .... = Free Buffer: False" size="4" pos="56" show="0" value="0" unmaskedvalue="00020000"/>
      <field name="usb.transfer_flags.dir_in" showname=".... .... .... .... .... ..1. .... .... = Dir IN: True" size="4" pos="56" show="1" value="1" unmaskedvalue="00020000"/>
      <field name="usb.transfer_flags.dma_map_single" showname=".... .... .... ...0 .... .... .... .... = DMA Map Single: False" size="4" pos="56" show="0" value="0" unmaskedvalue="00020000"/>
      <field name="usb.transfer_flags.dma_map_page" showname=".... .... .... ..0. .... .... .... .... = DMA Map Page: False" size="4" pos="56" show="0" value="0" unmaskedvalue="00020000"/>
      <field name="usb.transfer_flags.dma_map_sg" showname=".... .... .... .0.. .... .... .... .... = DMA Map SG: False" size="4" pos="56" show="0" value="0" unmaskedvalue="00020000"/>
      <field name="usb.transfer_flags.map_local" showname=".... .... .... 0... .... .... .... .... = Map Local: False" size="4" pos="56" show="0" value="0" unmaskedvalue="00020000"/>
      <field name="usb.transfer_flags.setup_map_single" showname=".... .... ...0 .... .... .... .... .... = Setup Map Single: False" size="4" pos="56" show="0" value="0" unmaskedvalue="00020000"/>
      <field name="usb.transfer_flags.setup_map_local" showname=".... .... ..0. .... .... .... .... .... = Setup Map Local: False" size="4" pos="56" show="0" value="0" unmaskedvalue="00020000"/>
      <field name="usb.transfer_flags.dma_sg_combined" showname=".... .... .0.. .... .... .... .... .... = DMA S-G Combined: False" size="4" pos="56" show="0" value="0" unmaskedvalue="00020000"/>
      <field name="usb.transfer_flags.aligned_temp_buffer" showname=".... .... 0... .... .... .... .... .... = Aligned Temp Buffer: False" size="4" pos="56" show="0" value="0" unmaskedvalue="00020000"/>
    </field>
    <field name="usb.iso.numdesc" showname="Number of ISO descriptors: 0" size="4" pos="60" show="0" value="00000000"/>
  </proto>
  <proto name="fake-field-wrapper">
    <field name="usb.capdata" showname="Leftover Capture Data: 3f" size="1" pos="64" show="3f" value="3f"/>
  </proto>
</packet>

<packet>
  <proto name="geninfo" pos="0" showname="General information" size="64">
    <field name="num" pos="0" show="486" showname="Number" value="1e6" size="64"/>
    <field name="len" pos="0" show="64" showname="Frame Length" value="40" size="64"/>
    <field name="caplen" pos="0" show="64" showname="Captured Length" value="40" size="64"/>
    <field name="timestamp" pos="0" show="Jul 31, 2023 16:24:23.229274000 EDT" showname="Captured Time" value="1690835063.229274000" size="64"/>
  </proto>
  <proto name="frame" showname="Frame 486: 64 bytes on wire (512 bits), 64 bytes captured (512 bits) on interface usbmon1, id 0" size="64" pos="0">
    <field name="frame.section_number" showname="Section number: 1" size="0" pos="0" show="1"/>
    <field name="frame.interface_id" showname="Interface id: 0 (usbmon1)" size="0" pos="0" show="0">
      <field name="frame.interface_name" showname="Interface name: usbmon1" size="0" pos="0" show="usbmon1"/>
    </field>
    <field name="frame.encap_type" showname="Encapsulation type: USB packets with Linux header and padding (115)" size="0" pos="0" show="115"/>
    <field name="frame.time" showname="Arrival Time: Jul 31, 2023 16:24:23.229274000 EDT" size="0" pos="0" show="Jul 31, 2023 16:24:23.229274000 EDT"/>
    <field name="frame.offset_shift" showname="Time shift for this packet: 0.000000000 seconds" size="0" pos="0" show="0.000000000"/>
    <field name="frame.time_epoch" showname="Epoch Time: 1690835063.229274000 seconds" size="0" pos="0" show="1690835063.229274000"/>
    <field name="frame.time_delta" showname="Time delta from previous captured frame: 0.000299000 seconds" size="0" pos="0" show="0.000299000"/>
    <field name="frame.time_delta_displayed" showname="Time delta from previous displayed frame: 0.000299000 seconds" size="0" pos="0" show="0.000299000"/>
    <field name="frame.time_relative" showname="Time since reference or first frame: 8.095734000 seconds" size="0" pos="0" show="8.095734000"/>
    <field name="frame.number" showname="Frame Number: 486" size="0" pos="0" show="486"/>
    <field name="frame.len" showname="Frame Length: 64 bytes (512 bits)" size="0" pos="0" show="64"/>
    <field name="frame.cap_len" showname="Capture Length: 64 bytes (512 bits)" size="0" pos="0" show="64"/>
    <field name="frame.marked" showname="Frame is marked: False" size="0" pos="0" show="0"/>
    <field name="frame.ignored" showname="Frame is ignored: False" size="0" pos="0" show="0"/>
    <field name="frame.protocols" showname="Protocols in frame: usb" size="0" pos="0" show="usb"/>
  </proto>
  <proto name="usb" showname="USB URB" size="64" pos="0">
    <field name="usb.src" showname="Source: host" size="0" pos="0" show="host"/>
    <field name="usb.addr" showname="Source or Destination: host" hide="yes" size="0" pos="0" show="host"/>
    <field name="usb.dst" showname="Destination: 1.14.3" size="0" pos="0" show="1.14.3"/>
    <field name="usb.addr" showname="Source or Destination: 1.14.3" hide="yes" size="0" pos="0" show="1.14.3"/>
    <field name="usb.urb_id" showname="URB id: 0xffffa0f83c16e3c0" size="8" pos="0" show="0xffffa0f83c16e3c0" value="c0e3163cf8a0ffff"/>
    <field name="usb.urb_type" showname="URB type: URB_SUBMIT (&#x27;S&#x27;)" size="1" pos="8" show="&#x27;S&#x27;" value="53"/>
    <field name="usb.transfer_type" showname="URB transfer type: URB_BULK (0x03)" size="1" pos="9" show="0x03" value="03"/>
    <field name="usb.endpoint_address" showname="Endpoint: 0x83, Direction: IN" size="1" pos="10" show="0x83" value="83">
      <field name="usb.endpoint_address.direction" showname="1... .... = Direction: IN (1)" size="1" pos="10" show="1" value="1" unmaskedvalue="83"/>
      <field name="usb.endpoint_address.number" showname=".... 0011 = Endpoint number: 3" size="1" pos="10" show="3" value="3" unmaskedvalue="83"/>
    </field>
    <field name="usb.device_address" showname="Device: 14" size="1" pos="11" show="14" value="0e"/>
    <field name="usb.bus_id" showname="URB bus id: 1" size="2" pos="12" show="1" value="0100"/>
    <field name="usb.setup_flag" showname="Device setup request: not relevant (&#x27;-&#x27;)" size="1" pos="14" show="&#x27;-&#x27;" value="2d"/>
    <field name="usb.data_flag" showname="Data: not present (&#x27;&lt;&#x27;)" size="1" pos="15" show="&#x27;&lt;&#x27;" value="3c"/>
    <field name="usb.urb_ts_sec" showname="URB sec: 1690835063" size="8" pos="16" show="1690835063" value="7718c86400000000"/>
    <field name="usb.urb_ts_usec" showname="URB usec: 229274" size="4" pos="24" show="229274" value="9a7f0300"/>
    <field name="usb.urb_status" showname="URB status: Operation now in progress (-EINPROGRESS) (-115)" size="4" pos="28" show="-115" value="8dffffff"/>
    <field name="usb.urb_len" showname="URB length [bytes]: 64" size="4" pos="32" show="64" value="40000000"/>
    <field name="usb.data_len" showname="Data length [bytes]: 0" size="4" pos="36" show="0" value="00000000"/>
    <field name="usb.response_in" showname="Response in: 487" size="0" pos="0" show="487"/>
    <field name="usb.bInterfaceClass" showname="bInterfaceClass: Unknown (0xffff)" size="0" pos="0" show="0xff"/>
    <field name="usb.unused_setup_header" showname="Unused Setup Header" size="8" pos="40" show="" value=""/>
    <field name="usb.interval" showname="Interval: 0" size="4" pos="48" show="0" value="00000000"/>
    <field name="usb.start_frame" showname="Start frame: 0" size="4" pos="52" show="0" value="00000000"/>
    <field name="usb.copy_of_transfer_flags" showname="Copy of Transfer Flags: 0x00000200, Dir IN" size="4" pos="56" show="0x00000200" value="00020000">
      <field name="usb.transfer_flags.short_not_ok" showname=".... .... .... .... .... .... .... ...0 = Short not OK: False" size="4" pos="56" show="0" value="0" unmaskedvalue="00020000"/>
      <field name="usb.transfer_flags.iso_asap" showname=".... .... .... .... .... .... .... ..0. = ISO ASAP: False" size="4" pos="56" show="0" value="0" unmaskedvalue="00020000"/>
      <field name="usb.transfer_flags.no_transfer_dma_map" showname=".... .... .... .... .... .... .... .0.. = No transfer DMA map: False" size="4" pos="56" show="0" value="0" unmaskedvalue="00020000"/>
      <field name="usb.transfer_flags.no_fsbr" showname=".... .... .... .... .... .... ..0. .... = No FSBR: False" size="4" pos="56" show="0" value="0" unmaskedvalue="00020000"/>
      <field name="usb.transfer_flags.zero_packet" showname=".... .... .... .... .... .... .0.. .... = Zero Packet: False" size="4" pos="56" show="0" value="0" unmaskedvalue="00020000"/>
      <field name="usb.transfer_flags.no_interrupt" showname=".... .... .... .... .... .... 0... .... = No Interrupt: False" size="4" pos="56" show="0" value="0" unmaskedvalue="00020000"/>
      <field name="usb.transfer_flags.free_buffer" showname=".... .... .... .... .... ...0 .... .... = Free Buffer: False" size="4" pos="56" show="0" value="0" unmaskedvalue="00020000"/>
      <field name="usb.transfer_flags.dir_in" showname=".... .... .... .... .... ..1. .... .... = Dir IN: True" size="4" pos="56" show="1" value="1" unmaskedvalue="00020000"/>
      <field name="usb.transfer_flags.dma_map_single" showname=".... .... .... ...0 .... .... .... .... = DMA Map Single: False" size="4" pos="56" show="0" value="0" unmaskedvalue="00020000"/>
      <field name="usb.transfer_flags.dma_map_page" showname=".... .... .... ..0. .... .... .... .... = DMA Map Page: False" size="4" pos="56" show="0" value="0" unmaskedvalue="00020000"/>
      <field name="usb.transfer_flags.dma_map_sg" showname=".... .... .... .0.. .... .... .... .... = DMA Map SG: False" size="4" pos="56" show="0" value="0" unmaskedvalue="00020000"/>
      <field name="usb.transfer_flags.map_local" showname=".... .... .... 0... .... .... .... .... = Map Local: False" size="4" pos="56" show="0" value="0" unmaskedvalue="00020000"/>
      <field name="usb.transfer_flags.setup_map_single" showname=".... .... ...0 .... .... .... .... .... = Setup Map Single: False" size="4" pos="56" show="0" value="0" unmaskedvalue="00020000"/>
      <field name="usb.transfer_flags.setup_map_local" showname=".... .... ..0. .... .... .... .... .... = Setup Map Local: False" size="4" pos="56" show="0" value="0" unmaskedvalue="00020000"/>
      <field name="usb.transfer_flags.dma_sg_combined" showname=".... .... .0.. .... .... .... .... .... = DMA S-G Combined: False" size="4" pos="56" show="0" value="0" unmaskedvalue="00020000"/>
      <field name="usb.transfer_flags.aligned_temp_buffer" showname=".... .... 0... .... .... .... .... .... = Aligned Temp Buffer: False" size="4" pos="56" show="0" value="0" unmaskedvalue="00020000"/>
    </field>
    <field name="usb.iso.numdesc" showname="Number of ISO descriptors: 0" size="4" pos="60" show="0" value="00000000"/>
  </proto>
</packet>

<packet>
  <proto name="geninfo" pos="0" showname="General information" size="65">
    <field name="num" pos="0" show="487" showname="Number" value="1e7" size="65"/>
    <field name="len" pos="0" show="65" showname="Frame Length" value="41" size="65"/>
    <field name="caplen" pos="0" show="65" showname="Captured Length" value="41" size="65"/>
    <field name="timestamp" pos="0" show="Jul 31, 2023 16:24:23.229330000 EDT" showname="Captured Time" value="1690835063.229330000" size="65"/>
  </proto>
  <proto name="frame" showname="Frame 487: 65 bytes on wire (520 bits), 65 bytes captured (520 bits) on interface usbmon1, id 0" size="65" pos="0">
    <field name="frame.section_number" showname="Section number: 1" size="0" pos="0" show="1"/>
    <field name="frame.interface_id" showname="Interface id: 0 (usbmon1)" size="0" pos="0" show="0">
      <field name="frame.interface_name" showname="Interface name: usbmon1" size="0" pos="0" show="usbmon1"/>
    </field>
    <field name="frame.encap_type" showname="Encapsulation type: USB packets with Linux header and padding (115)" size="0" pos="0" show="115"/>
    <field name="frame.time" showname="Arrival Time: Jul 31, 2023 16:24:23.229330000 EDT" size="0" pos="0" show="Jul 31, 2023 16:24:23.229330000 EDT"/>
    <field name="frame.offset_shift" showname="Time shift for this packet: 0.000000000 seconds" size="0" pos="0" show="0.000000000"/>
    <field name="frame.time_epoch" showname="Epoch Time: 1690835063.229330000 seconds" size="0" pos="0" show="1690835063.229330000"/>
    <field name="frame.time_delta" showname="Time delta from previous captured frame: 0.000056000 seconds" size="0" pos="0" show="0.000056000"/>
    <field name="frame.time_delta_displayed" showname="Time delta from previous displayed frame: 0.000056000 seconds" size="0" pos="0" show="0.000056000"/>
    <field name="frame.time_relative" showname="Time since reference or first frame: 8.095790000 seconds" size="0" pos="0" show="8.095790000"/>
    <field name="frame.number" showname="Frame Number: 487" size="0" pos="0" show="487"/>
    <field name="frame.len" showname="Frame Length: 65 bytes (520 bits)" size="0" pos="0" show="65"/>
    <field name="frame.cap_len" showname="Capture Length: 65 bytes (520 bits)" size="0" pos="0" show="65"/>
    <field name="frame.marked" showname="Frame is marked: False" size="0" pos="0" show="0"/>
    <field name="frame.ignored" showname="Frame is ignored: False" size="0" pos="0" show="0"/>
    <field name="frame.protocols" showname="Protocols in frame: usb" size="0" pos="0" show="usb"/>
  </proto>
  <proto name="usb" showname="USB URB" size="64" pos="0">
    <field name="usb.src" showname="Source: 1.14.3" size="0" pos="0" show="1.14.3"/>
    <field name="usb.addr" showname="Source or Destination: 1.14.3" hide="yes" size="0" pos="0" show="1.14.3"/>
    <field name="usb.dst" showname="Destination: host" size="0" pos="0" show="host"/>
    <field name="usb.addr" showname="Source or Destination: host" hide="yes" size="0" pos="0" show="host"/>
    <field name="usb.urb_id" showname="URB id: 0xffffa0f83c16e3c0" size="8" pos="0" show="0xffffa0f83c16e3c0" value="c0e3163cf8a0ffff"/>
    <field name="usb.urb_type" showname="URB type: URB_COMPLETE (&#x27;C&#x27;)" size="1" pos="8" show="&#x27;C&#x27;" value="43"/>
    <field name="usb.transfer_type" showname="URB transfer type: URB_BULK (0x03)" size="1" pos="9" show="0x03" value="03"/>
    <field name="usb.endpoint_address" showname="Endpoint: 0x83, Direction: IN" size="1" pos="10" show="0x83" value="83">
      <field name="usb.endpoint_address.direction" showname="1... .... = Direction: IN (1)" size="1" pos="10" show="1" value="1" unmaskedvalue="83"/>
      <field name="usb.endpoint_address.number" showname=".... 0011 = Endpoint number: 3" size="1" pos="10" show="3" value="3" unmaskedvalue="83"/>
    </field>
    <field name="usb.device_address" showname="Device: 14" size="1" pos="11" show="14" value="0e"/>
    <field name="usb.bus_id" showname="URB bus id: 1" size="2" pos="12" show="1" value="0100"/>
    <field name="usb.setup_flag" showname="Device setup request: not relevant (&#x27;-&#x27;)" size="1" pos="14" show="&#x27;-&#x27;" value="2d"/>
    <field name="usb.data_flag" showname="Data: present (&#x27;\0&#x27;)" size="1" pos="15" show="&#x27;\0&#x27;" value="00"/>
    <field name="usb.urb_ts_sec" showname="URB sec: 1690835063" size="8" pos="16" show="1690835063" value="7718c86400000000"/>
    <field name="usb.urb_ts_usec" showname="URB usec: 229330" size="4" pos="24" show="229330" value="d27f0300"/>
    <field name="usb.urb_status" showname="URB status: Success (0)" size="4" pos="28" show="0" value="00000000"/>
    <field name="usb.urb_len" showname="URB length [bytes]: 1" size="4" pos="32" show="1" value="01000000"/>
    <field name="usb.data_len" showname="Data length [bytes]: 1" size="4" pos="36" show="1" value="01000000"/>
    <field name="usb.request_in" showname="Request in: 486" size="0" pos="0" show="486"/>
    <field name="usb.time" showname="Time from request: 0.000056000 seconds" size="0" pos="0" show="0.000056000"/>
    <field name="usb.bInterfaceClass" showname="bInterfaceClass: Unknown (0xffff)" size="0" pos="0" show="0xff"/>
    <field name="usb.unused_setup_header" showname="Unused Setup Header" size="8" pos="40" show="" value=""/>
    <field name="usb.interval" showname="Interval: 0" size="4" pos="48" show="0" value="00000000"/>
    <field name="usb.start_frame" showname="Start frame: 0" size="4" pos="52" show="0" value="00000000"/>
    <field name="usb.copy_of_transfer_flags" showname="Copy of Transfer Flags: 0x00000200, Dir IN" size="4" pos="56" show="0x00000200" value="00020000">
      <field name="usb.transfer_flags.short_not_ok" showname=".... .... .... .... .... .... .... ...0 = Short not OK: False" size="4" pos="56" show="0" value="0" unmaskedvalue="00020000"/>
      <field name="usb.transfer_flags.iso_asap" showname=".... .... .... .... .... .... .... ..0. = ISO ASAP: False" size="4" pos="56" show="0" value="0" unmaskedvalue="00020000"/>
      <field name="usb.transfer_flags.no_transfer_dma_map" showname=".... .... .... .... .... .... .... .0.. = No transfer DMA map: False" size="4" pos="56" show="0" value="0" unmaskedvalue="00020000"/>
      <field name="usb.transfer_flags.no_fsbr" showname=".... .... .... .... .... .... ..0. .... = No FSBR: False" size="4" pos="56" show="0" value="0" unmaskedvalue="00020000"/>
      <field name="usb.transfer_flags.zero_packet" showname=".... .... .... .... .... .... .0.. .... = Zero Packet: False" size="4" pos="56" show="0" value="0" unmaskedvalue="00020000"/>
      <field name="usb.transfer_flags.no_interrupt" showname=".... .... .... .... .... .... 0... .... = No Interrupt: False" size="4" pos="56" show="0" value="0" unmaskedvalue="00020000"/>
      <field name="usb.transfer_flags.free_buffer" showname=".... .... .... .... .... ...0 .... .... = Free Buffer: False" size="4" pos="56" show="0" value="0" unmaskedvalue="00020000"/>
      <field name="usb.transfer_flags.dir_in" showname=".... .... .... .... .... ..1. .... .... = Dir IN: True" size="4" pos="56" show="1" value="1" unmaskedvalue="00020000"/>
      <field name="usb.transfer_flags.dma_map_single" showname=".... .... .... ...0 .... .... .... .... = DMA Map Single: False" size="4" pos="56" show="0" value="0" unmaskedvalue="00020000"/>
      <field name="usb.transfer_flags.dma_map_page" showname=".... .... .... ..0. .... .... .... .... = DMA Map Page: False" size="4" pos="56" show="0" value="0" unmaskedvalue="00020000"/>
      <field name="usb.transfer_flags.dma_map_sg" showname=".... .... .... .0.. .... .... .... .... = DMA Map SG: False" size="4" pos="56" show="0" value="0" unmaskedvalue="00020000"/>
      <field name="usb.transfer_flags.map_local" showname=".... .... .... 0... .... .... .... .... = Map Local: False" size="4" pos="56" show="0" value="0" unmaskedvalue="00020000"/>
      <field name="usb.transfer_flags.setup_map_single" showname=".... .... ...0 .... .... .... .... .... = Setup Map Single: False" size="4" pos="56" show="0" value="0" unmaskedvalue="00020000"/>
      <field name="usb.transfer_flags.setup_map_local" showname=".... .... ..0. .... .... .... .... .... = Setup Map Local: False" size="4" pos="56" show="0" value="0" unmaskedvalue="00020000"/>
      <field name="usb.transfer_flags.dma_sg_combined" showname=".... .... .0.. .... .... .... .... .... = DMA S-G Combined: False" size="4" pos="56" show="0" value="0" unmaskedvalue="00020000"/>
      <field name="usb.transfer_flags.aligned_temp_buffer" showname=".... .... 0... .... .... .... .... .... = Aligned Temp Buffer: False" size="4" pos="56" show="0" value="0" unmaskedvalue="00020000"/>
    </field>
    <field name="usb.iso.numdesc" showname="Number of ISO descriptors: 0" size="4" pos="60" show="0" value="00000000"/>
  </proto>
  <proto name="fake-field-wrapper">
    <field name="usb.capdata" showname="Leftover Capture Data: 06" size="1" pos="64" show="06" value="06"/>
  </proto>
</packet>

<packet>
  <proto name="geninfo" pos="0" showname="General information" size="64">
    <field name="num" pos="0" show="488" showname="Number" value="1e8" size="64"/>
    <field name="len" pos="0" show="64" showname="Frame Length" value="40" size="64"/>
    <field name="caplen" pos="0" show="64" showname="Captured Length" value="40" size="64"/>
    <field name="timestamp" pos="0" show="Jul 31, 2023 16:24:23.229548000 EDT" showname="Captured Time" value="1690835063.229548000" size="64"/>
  </proto>
  <proto name="frame" showname="Frame 488: 64 bytes on wire (512 bits), 64 bytes captured (512 bits) on interface usbmon1, id 0" size="64" pos="0">
    <field name="frame.section_number" showname="Section number: 1" size="0" pos="0" show="1"/>
    <field name="frame.interface_id" showname="Interface id: 0 (usbmon1)" size="0" pos="0" show="0">
      <field name="frame.interface_name" showname="Interface name: usbmon1" size="0" pos="0" show="usbmon1"/>
    </field>
    <field name="frame.encap_type" showname="Encapsulation type: USB packets with Linux header and padding (115)" size="0" pos="0" show="115"/>
    <field name="frame.time" showname="Arrival Time: Jul 31, 2023 16:24:23.229548000 EDT" size="0" pos="0" show="Jul 31, 2023 16:24:23.229548000 EDT"/>
    <field name="frame.offset_shift" showname="Time shift for this packet: 0.000000000 seconds" size="0" pos="0" show="0.000000000"/>
    <field name="frame.time_epoch" showname="Epoch Time: 1690835063.229548000 seconds" size="0" pos="0" show="1690835063.229548000"/>
    <field name="frame.time_delta" showname="Time delta from previous captured frame: 0.000218000 seconds" size="0" pos="0" show="0.000218000"/>
    <field name="frame.time_delta_displayed" showname="Time delta from previous displayed frame: 0.000218000 seconds" size="0" pos="0" show="0.000218000"/>
    <field name="frame.time_relative" showname="Time since reference or first frame: 8.096008000 seconds" size="0" pos="0" show="8.096008000"/>
    <field name="frame.number" showname="Frame Number: 488" size="0" pos="0" show="488"/>
    <field name="frame.len" showname="Frame Length: 64 bytes (512 bits)" size="0" pos="0" show="64"/>
    <field name="frame.cap_len" showname="Capture Length: 64 bytes (512 bits)" size="0" pos="0" show="64"/>
    <field name="frame.marked" showname="Frame is marked: False" size="0" pos="0" show="0"/>
    <field name="frame.ignored" showname="Frame is ignored: False" size="0" pos="0" show="0"/>
    <field name="frame.protocols" showname="Protocols in frame: usb" size="0" pos="0" show="usb"/>
  </proto>
  <proto name="usb" showname="USB URB" size="64" pos="0">
    <field name="usb.src" showname="Source: host" size="0" pos="0" show="host"/>
    <field name="usb.addr" showname="Source or Destination: host" hide="yes" size="0" pos="0" show="host"/>
    <field name="usb.dst" showname="Destination: 1.14.3" size="0" pos="0" show="1.14.3"/>
    <field name="usb.addr" showname="Source or Destination: 1.14.3" hide="yes" size="0" pos="0" show="1.14.3"/>
    <field name="usb.urb_id" showname="URB id: 0xffffa0f83c16f440" size="8" pos="0" show="0xffffa0f83c16f440" value="40f4163cf8a0ffff"/>
    <field name="usb.urb_type" showname="URB type: URB_SUBMIT (&#x27;S&#x27;)" size="1" pos="8" show="&#x27;S&#x27;" value="53"/>
    <field name="usb.transfer_type" showname="URB transfer type: URB_BULK (0x03)" size="1" pos="9" show="0x03" value="03"/>
    <field name="usb.endpoint_address" showname="Endpoint: 0x83, Direction: IN" size="1" pos="10" show="0x83" value="83">
      <field name="usb.endpoint_address.direction" showname="1... .... = Direction: IN (1)" size="1" pos="10" show="1" value="1" unmaskedvalue="83"/>
      <field name="usb.endpoint_address.number" showname=".... 0011 = Endpoint number: 3" size="1" pos="10" show="3" value="3" unmaskedvalue="83"/>
    </field>
    <field name="usb.device_address" showname="Device: 14" size="1" pos="11" show="14" value="0e"/>
    <field name="usb.bus_id" showname="URB bus id: 1" size="2" pos="12" show="1" value="0100"/>
    <field name="usb.setup_flag" showname="Device setup request: not relevant (&#x27;-&#x27;)" size="1" pos="14" show="&#x27;-&#x27;" value="2d"/>
    <field name="usb.data_flag" showname="Data: not present (&#x27;&lt;&#x27;)" size="1" pos="15" show="&#x27;&lt;&#x27;" value="3c"/>
    <field name="usb.urb_ts_sec" showname="URB sec: 1690835063" size="8" pos="16" show="1690835063" value="7718c86400000000"/>
    <field name="usb.urb_ts_usec" showname="URB usec: 229548" size="4" pos="24" show="229548" value="ac800300"/>
    <field name="usb.urb_status" showname="URB status: Operation now in progress (-EINPROGRESS) (-115)" size="4" pos="28" show="-115" value="8dffffff"/>
    <field name="usb.urb_len" showname="URB length [bytes]: 64" size="4" pos="32" show="64" value="40000000"/>
    <field name="usb.data_len" showname="Data length [bytes]: 0" size="4" pos="36" show="0" value="00000000"/>
    <field name="usb.response_in" showname="Response in: 489" size="0" pos="0" show="489"/>
    <field name="usb.bInterfaceClass" showname="bInterfaceClass: Unknown (0xffff)" size="0" pos="0" show="0xff"/>
    <field name="usb.unused_setup_header" showname="Unused Setup Header" size="8" pos="40" show="" value=""/>
    <field name="usb.interval" showname="Interval: 0" size="4" pos="48" show="0" value="00000000"/>
    <field name="usb.start_frame" showname="Start frame: 0" size="4" pos="52" show="0" value="00000000"/>
    <field name="usb.copy_of_transfer_flags" showname="Copy of Transfer Flags: 0x00000200, Dir IN" size="4" pos="56" show="0x00000200" value="00020000">
      <field name="usb.transfer_flags.short_not_ok" showname=".... .... .... .... .... .... .... ...0 = Short not OK: False" size="4" pos="56" show="0" value="0" unmaskedvalue="00020000"/>
      <field name="usb.transfer_flags.iso_asap" showname=".... .... .... .... .... .... .... ..0. = ISO ASAP: False" size="4" pos="56" show="0" value="0" unmaskedvalue="00020000"/>
      <field name="usb.transfer_flags.no_transfer_dma_map" showname=".... .... .... .... .... .... .... .0.. = No transfer DMA map: False" size="4" pos="56" show="0" value="0" unmaskedvalue="00020000"/>
      <field name="usb.transfer_flags.no_fsbr" showname=".... .... .... .... .... .... ..0. .... = No FSBR: False" size="4" pos="56" show="0" value="0" unmaskedvalue="00020000"/>
      <field name="usb.transfer_flags.zero_packet" showname=".... .... .... .... .... .... .0.. .... = Zero Packet: False" size="4" pos="56" show="0" value="0" unmaskedvalue="00020000"/>
      <field name="usb.transfer_flags.no_interrupt" showname=".... .... .... .... .... .... 0... .... = No Interrupt: False" size="4" pos="56" show="0" value="0" unmaskedvalue="00020000"/>
      <field name="usb.transfer_flags.free_buffer" showname=".... .... .... .... .... ...0 .... .... = Free Buffer: False" size="4" pos="56" show="0" value="0" unmaskedvalue="00020000"/>
      <field name="usb.transfer_flags.dir_in" showname=".... .... .... .... .... ..1. .... .... = Dir IN: True" size="4" pos="56" show="1" value="1" unmaskedvalue="00020000"/>
      <field name="usb.transfer_flags.dma_map_single" showname=".... .... .... ...0 .... .... .... .... = DMA Map Single: False" size="4" pos="56" show="0" value="0" unmaskedvalue="00020000"/>
      <field name="usb.transfer_flags.dma_map_page" showname=".... .... .... ..0. .... .... .... .... = DMA Map Page: False" size="4" pos="56" show="0" value="0" unmaskedvalue="00020000"/>
      <field name="usb.transfer_flags.dma_map_sg" showname=".... .... .... .0.. .... .... .... .... = DMA Map SG: False" size="4" pos="56" show="0" value="0" unmaskedvalue="00020000"/>
      <field name="usb.transfer_flags.map_local" showname=".... .... .... 0... .... .... .... .... = Map Local: False" size="4" pos="56" show="0" value="0" unmaskedvalue="00020000"/>
      <field name="usb.transfer_flags.setup_map_single" showname=".... .... ...0 .... .... .... .... .... = Setup Map Single: False" size="4" pos="56" show="0" value="0" unmaskedvalue="00020000"/>
      <field name="usb.transfer_flags.setup_map_local" showname=".... .... ..0. .... .... .... .... .... = Setup Map Local: False" size="4" pos="56" show="0" value="0" unmaskedvalue="00020000"/>
      <field name="usb.transfer_flags.dma_sg_combined" showname=".... .... .0.. .... .... .... .... .... = DMA S-G Combined: False" size="4" pos="56" show="0" value="0" unmaskedvalue="00020000"/>
      <field name="usb.transfer_flags.aligned_temp_buffer" showname=".... .... 0... .... .... .... .... .... = Aligned Temp Buffer: False" size="4" pos="56" show="0" value="0" unmaskedvalue="00020000"/>
    </field>
    <field name="usb.iso.numdesc" showname="Number of ISO descriptors: 0" size="4" pos="60" show="0" value="00000000"/>
  </proto>
</packet>

<packet>
  <proto name="geninfo" pos="0" showname="General information" size="65">
    <field name="num" pos="0" show="489" showname="Number" value="1e9" size="65"/>
    <field name="len" pos="0" show="65" showname="Frame Length" value="41" size="65"/>
    <field name="caplen" pos="0" show="65" showname="Captured Length" value="41" size="65"/>
    <field name="timestamp" pos="0" show="Jul 31, 2023 16:24:23.229597000 EDT" showname="Captured Time" value="1690835063.229597000" size="65"/>
  </proto>
  <proto name="frame" showname="Frame 489: 65 bytes on wire (520 bits), 65 bytes captured (520 bits) on interface usbmon1, id 0" size="65" pos="0">
    <field name="frame.section_number" showname="Section number: 1" size="0" pos="0" show="1"/>
    <field name="frame.interface_id" showname="Interface id: 0 (usbmon1)" size="0" pos="0" show="0">
      <field name="frame.interface_name" showname="Interface name: usbmon1" size="0" pos="0" show="usbmon1"/>
    </field>
    <field name="frame.encap_type" showname="Encapsulation type: USB packets with Linux header and padding (115)" size="0" pos="0" show="115"/>
    <field name="frame.time" showname="Arrival Time: Jul 31, 2023 16:24:23.229597000 EDT" size="0" pos="0" show="Jul 31, 2023 16:24:23.229597000 EDT"/>
    <field name="frame.offset_shift" showname="Time shift for this packet: 0.000000000 seconds" size="0" pos="0" show="0.000000000"/>
    <field name="frame.time_epoch" showname="Epoch Time: 1690835063.229597000 seconds" size="0" pos="0" show="1690835063.229597000"/>
    <field name="frame.time_delta" showname="Time delta from previous captured frame: 0.000049000 seconds" size="0" pos="0" show="0.000049000"/>
    <field name="frame.time_delta_displayed" showname="Time delta from previous displayed frame: 0.000049000 seconds" size="0" pos="0" show="0.000049000"/>
    <field name="frame.time_relative" showname="Time since reference or first frame: 8.096057000 seconds" size="0" pos="0" show="8.096057000"/>
    <field name="frame.number" showname="Frame Number: 489" size="0" pos="0" show="489"/>
    <field name="frame.len" showname="Frame Length: 65 bytes (520 bits)" size="0" pos="0" show="65"/>
    <field name="frame.cap_len" showname="Capture Length: 65 bytes (520 bits)" size="0" pos="0" show="65"/>
    <field name="frame.marked" showname="Frame is marked: False" size="0" pos="0" show="0"/>
    <field name="frame.ignored" showname="Frame is ignored: False" size="0" pos="0" show="0"/>
    <field name="frame.protocols" showname="Protocols in frame: usb" size="0" pos="0" show="usb"/>
  </proto>
  <proto name="usb" showname="USB URB" size="64" pos="0">
    <field name="usb.src" showname="Source: 1.14.3" size="0" pos="0" show="1.14.3"/>
    <field name="usb.addr" showname="Source or Destination: 1.14.3" hide="yes" size="0" pos="0" show="1.14.3"/>
    <field name="usb.dst" showname="Destination: host" size="0" pos="0" show="host"/>
    <field name="usb.addr" showname="Source or Destination: host" hide="yes" size="0" pos="0" show="host"/>
    <field name="usb.urb_id" showname="URB id: 0xffffa0f83c16f440" size="8" pos="0" show="0xffffa0f83c16f440" value="40f4163cf8a0ffff"/>
    <field name="usb.urb_type" showname="URB type: URB_COMPLETE (&#x27;C&#x27;)" size="1" pos="8" show="&#x27;C&#x27;" value="43"/>
    <field name="usb.transfer_type" showname="URB transfer type: URB_BULK (0x03)" size="1" pos="9" show="0x03" value="03"/>
    <field name="usb.endpoint_address" showname="Endpoint: 0x83, Direction: IN" size="1" pos="10" show="0x83" value="83">
      <field name="usb.endpoint_address.direction" showname="1... .... = Direction: IN (1)" size="1" pos="10" show="1" value="1" unmaskedvalue="83"/>
      <field name="usb.endpoint_address.number" showname=".... 0011 = Endpoint number: 3" size="1" pos="10" show="3" value="3" unmaskedvalue="83"/>
    </field>
    <field name="usb.device_address" showname="Device: 14" size="1" pos="11" show="14" value="0e"/>
    <field name="usb.bus_id" showname="URB bus id: 1" size="2" pos="12" show="1" value="0100"/>
    <field name="usb.setup_flag" showname="Device setup request: not relevant (&#x27;-&#x27;)" size="1" pos="14" show="&#x27;-&#x27;" value="2d"/>
    <field name="usb.data_flag" showname="Data: present (&#x27;\0&#x27;)" size="1" pos="15" show="&#x27;\0&#x27;" value="00"/>
    <field name="usb.urb_ts_sec" showname="URB sec: 1690835063" size="8" pos="16" show="1690835063" value="7718c86400000000"/>
    <field name="usb.urb_ts_usec" showname="URB usec: 229597" size="4" pos="24" show="229597" value="dd800300"/>
    <field name="usb.urb_status" showname="URB status: Success (0)" size="4" pos="28" show="0" value="00000000"/>
    <field name="usb.urb_len" showname="URB length [bytes]: 1" size="4" pos="32" show="1" value="01000000"/>
    <field name="usb.data_len" showname="Data length [bytes]: 1" size="4" pos="36" show="1" value="01000000"/>
    <field name="usb.request_in" showname="Request in: 488" size="0" pos="0" show="488"/>
    <field name="usb.time" showname="Time from request: 0.000049000 seconds" size="0" pos="0" show="0.000049000"/>
    <field name="usb.bInterfaceClass" showname="bInterfaceClass: Unknown (0xffff)" size="0" pos="0" show="0xff"/>
    <field name="usb.unused_setup_header" showname="Unused Setup Header" size="8" pos="40" show="" value=""/>
    <field name="usb.interval" showname="Interval: 0" size="4" pos="48" show="0" value="00000000"/>
    <field name="usb.start_frame" showname="Start frame: 0" size="4" pos="52" show="0" value="00000000"/>
    <field name="usb.copy_of_transfer_flags" showname="Copy of Transfer Flags: 0x00000200, Dir IN" size="4" pos="56" show="0x00000200" value="00020000">
      <field name="usb.transfer_flags.short_not_ok" showname=".... .... .... .... .... .... .... ...0 = Short not OK: False" size="4" pos="56" show="0" value="0" unmaskedvalue="00020000"/>
      <field name="usb.transfer_flags.iso_asap" showname=".... .... .... .... .... .... .... ..0. = ISO ASAP: False" size="4" pos="56" show="0" value="0" unmaskedvalue="00020000"/>
      <field name="usb.transfer_flags.no_transfer_dma_map" showname=".... .... .... .... .... .... .... .0.. = No transfer DMA map: False" size="4" pos="56" show="0" value="0" unmaskedvalue="00020000"/>
      <field name="usb.transfer_flags.no_fsbr" showname=".... .... .... .... .... .... ..0. .... = No FSBR: False" size="4" pos="56" show="0" value="0" unmaskedvalue="00020000"/>
      <field name="usb.transfer_flags.zero_packet" showname=".... .... .... .... .... .... .0.. .... = Zero Packet: False" size="4" pos="56" show="0" value="0" unmaskedvalue="00020000"/>
      <field name="usb.transfer_flags.no_interrupt" showname=".... .... .... .... .... .... 0... .... = No Interrupt: False" size="4" pos="56" show="0" value="0" unmaskedvalue="00020000"/>
      <field name="usb.transfer_flags.free_buffer" showname=".... .... .... .... .... ...0 .... .... = Free Buffer: False" size="4" pos="56" show="0" value="0" unmaskedvalue="00020000"/>
      <field name="usb.transfer_flags.dir_in" showname=".... .... .... .... .... ..1. .... .... = Dir IN: True" size="4" pos="56" show="1" value="1" unmaskedvalue="00020000"/>
      <field name="usb.transfer_flags.dma_map_single" showname=".... .... .... ...0 .... .... .... .... = DMA Map Single: False" size="4" pos="56" show="0" value="0" unmaskedvalue="00020000"/>
      <field name="usb.transfer_flags.dma_map_page" showname=".... .... .... ..0. .... .... .... .... = DMA Map Page: False" size="4" pos="56" show="0" value="0" unmaskedvalue="00020000"/>
      <field name="usb.transfer_flags.dma_map_sg" showname=".... .... .... .0.. .... .... .... .... = DMA Map SG: False" size="4" pos="56" show="0" value="0" unmaskedvalue="00020000"/>
      <field name="usb.transfer_flags.map_local" showname=".... .... .... 0... .... .... .... .... = Map Local: False" size="4" pos="56" show="0" value="0" unmaskedvalue="00020000"/>
      <field name="usb.transfer_flags.setup_map_single" showname=".... .... ...0 .... .... .... .... .... = Setup Map Single: False" size="4" pos="56" show="0" value="0" unmaskedvalue="00020000"/>
      <field name="usb.transfer_flags.setup_map_local" showname=".... .... ..0. .... .... .... .... .... = Setup Map Local: False" size="4" pos="56" show="0" value="0" unmaskedvalue="00020000"/>
      <field name="usb.transfer_flags.dma_sg_combined" showname=".... .... .0.. .... .... .... .... .... = DMA S-G Combined: False" size="4" pos="56" show="0" value="0" unmaskedvalue="00020000"/>
      <field name="usb.transfer_flags.aligned_temp_buffer" showname=".... .... 0... .... .... .... .... .... = Aligned Temp Buffer: False" size="4" pos="56" show="0" value="0" unmaskedvalue="00020000"/>
    </field>
    <field name="usb.iso.numdesc" showname="Number of ISO descriptors: 0" size="4" pos="60" show="0" value="00000000"/>
  </proto>
  <proto name="fake-field-wrapper">
    <field name="usb.capdata" showname="Leftover Capture Data: 00" size="1" pos="64" show="00" value="00"/>
  </proto>
</packet>

<packet>
  <proto name="geninfo" pos="0" showname="General information" size="64">
    <field name="num" pos="0" show="490" showname="Number" value="1ea" size="64"/>
    <field name="len" pos="0" show="64" showname="Frame Length" value="40" size="64"/>
    <field name="caplen" pos="0" show="64" showname="Captured Length" value="40" size="64"/>
    <field name="timestamp" pos="0" show="Jul 31, 2023 16:24:23.229769000 EDT" showname="Captured Time" value="1690835063.229769000" size="64"/>
  </proto>
  <proto name="frame" showname="Frame 490: 64 bytes on wire (512 bits), 64 bytes captured (512 bits) on interface usbmon1, id 0" size="64" pos="0">
    <field name="frame.section_number" showname="Section number: 1" size="0" pos="0" show="1"/>
    <field name="frame.interface_id" showname="Interface id: 0 (usbmon1)" size="0" pos="0" show="0">
      <field name="frame.interface_name" showname="Interface name: usbmon1" size="0" pos="0" show="usbmon1"/>
    </field>
    <field name="frame.encap_type" showname="Encapsulation type: USB packets with Linux header and padding (115)" size="0" pos="0" show="115"/>
    <field name="frame.time" showname="Arrival Time: Jul 31, 2023 16:24:23.229769000 EDT" size="0" pos="0" show="Jul 31, 2023 16:24:23.229769000 EDT"/>
    <field name="frame.offset_shift" showname="Time shift for this packet: 0.000000000 seconds" size="0" pos="0" show="0.000000000"/>
    <field name="frame.time_epoch" showname="Epoch Time: 1690835063.229769000 seconds" size="0" pos="0" show="1690835063.229769000"/>
    <field name="frame.time_delta" showname="Time delta from previous captured frame: 0.000172000 seconds" size="0" pos="0" show="0.000172000"/>
    <field name="frame.time_delta_displayed" showname="Time delta from previous displayed frame: 0.000172000 seconds" size="0" pos="0" show="0.000172000"/>
    <field name="frame.time_relative" showname="Time since reference or first frame: 8.096229000 seconds" size="0" pos="0" show="8.096229000"/>
    <field name="frame.number" showname="Frame Number: 490" size="0" pos="0" show="490"/>
    <field name="frame.len" showname="Frame Length: 64 bytes (512 bits)" size="0" pos="0" show="64"/>
    <field name="frame.cap_len" showname="Capture Length: 64 bytes (512 bits)" size="0" pos="0" show="64"/>
    <field name="frame.marked" showname="Frame is marked: False" size="0" pos="0" show="0"/>
    <field name="frame.ignored" showname="Frame is ignored: False" size="0" pos="0" show="0"/>
    <field name="frame.protocols" showname="Protocols in frame: usb" size="0" pos="0" show="usb"/>
  </proto>
  <proto name="usb" showname="USB URB" size="64" pos="0">
    <field name="usb.src" showname="Source: host" size="0" pos="0" show="host"/>
    <field name="usb.addr" showname="Source or Destination: host" hide="yes" size="0" pos="0" show="host"/>
    <field name="usb.dst" showname="Destination: 1.14.3" size="0" pos="0" show="1.14.3"/>
    <field name="usb.addr" showname="Source or Destination: 1.14.3" hide="yes" size="0" pos="0" show="1.14.3"/>
    <field name="usb.urb_id" showname="URB id: 0xffffa0f83c16e480" size="8" pos="0" show="0xffffa0f83c16e480" value="80e4163cf8a0ffff"/>
    <field name="usb.urb_type" showname="URB type: URB_SUBMIT (&#x27;S&#x27;)" size="1" pos="8" show="&#x27;S&#x27;" value="53"/>
    <field name="usb.transfer_type" showname="URB transfer type: URB_BULK (0x03)" size="1" pos="9" show="0x03" value="03"/>
    <field name="usb.endpoint_address" showname="Endpoint: 0x83, Direction: IN" size="1" pos="10" show="0x83" value="83">
      <field name="usb.endpoint_address.direction" showname="1... .... = Direction: IN (1)" size="1" pos="10" show="1" value="1" unmaskedvalue="83"/>
      <field name="usb.endpoint_address.number" showname=".... 0011 = Endpoint number: 3" size="1" pos="10" show="3" value="3" unmaskedvalue="83"/>
    </field>
    <field name="usb.device_address" showname="Device: 14" size="1" pos="11" show="14" value="0e"/>
    <field name="usb.bus_id" showname="URB bus id: 1" size="2" pos="12" show="1" value="0100"/>
    <field name="usb.setup_flag" showname="Device setup request: not relevant (&#x27;-&#x27;)" size="1" pos="14" show="&#x27;-&#x27;" value="2d"/>
    <field name="usb.data_flag" showname="Data: not present (&#x27;&lt;&#x27;)" size="1" pos="15" show="&#x27;&lt;&#x27;" value="3c"/>
    <field name="usb.urb_ts_sec" showname="URB sec: 1690835063" size="8" pos="16" show="1690835063" value="7718c86400000000"/>
    <field name="usb.urb_ts_usec" showname="URB usec: 229769" size="4" pos="24" show="229769" value="89810300"/>
    <field name="usb.urb_status" showname="URB status: Operation now in progress (-EINPROGRESS) (-115)" size="4" pos="28" show="-115" value="8dffffff"/>
    <field name="usb.urb_len" showname="URB length [bytes]: 64" size="4" pos="32" show="64" value="40000000"/>
    <field name="usb.data_len" showname="Data length [bytes]: 0" size="4" pos="36" show="0" value="00000000"/>
    <field name="usb.response_in" showname="Response in: 491" size="0" pos="0" show="491"/>
    <field name="usb.bInterfaceClass" showname="bInterfaceClass: Unknown (0xffff)" size="0" pos="0" show="0xff"/>
    <field name="usb.unused_setup_header" showname="Unused Setup Header" size="8" pos="40" show="" value=""/>
    <field name="usb.interval" showname="Interval: 0" size="4" pos="48" show="0" value="00000000"/>
    <field name="usb.start_frame" showname="Start frame: 0" size="4" pos="52" show="0" value="00000000"/>
    <field name="usb.copy_of_transfer_flags" showname="Copy of Transfer Flags: 0x00000200, Dir IN" size="4" pos="56" show="0x00000200" value="00020000">
      <field name="usb.transfer_flags.short_not_ok" showname=".... .... .... .... .... .... .... ...0 = Short not OK: False" size="4" pos="56" show="0" value="0" unmaskedvalue="00020000"/>
      <field name="usb.transfer_flags.iso_asap" showname=".... .... .... .... .... .... .... ..0. = ISO ASAP: False" size="4" pos="56" show="0" value="0" unmaskedvalue="00020000"/>
      <field name="usb.transfer_flags.no_transfer_dma_map" showname=".... .... .... .... .... .... .... .0.. = No transfer DMA map: False" size="4" pos="56" show="0" value="0" unmaskedvalue="00020000"/>
      <field name="usb.transfer_flags.no_fsbr" showname=".... .... .... .... .... .... ..0. .... = No FSBR: False" size="4" pos="56" show="0" value="0" unmaskedvalue="00020000"/>
      <field name="usb.transfer_flags.zero_packet" showname=".... .... .... .... .... .... .0.. .... = Zero Packet: False" size="4" pos="56" show="0" value="0" unmaskedvalue="00020000"/>
      <field name="usb.transfer_flags.no_interrupt" showname=".... .... .... .... .... .... 0... .... = No Interrupt: False" size="4" pos="56" show="0" value="0" unmaskedvalue="00020000"/>
      <field name="usb.transfer_flags.free_buffer" showname=".... .... .... .... .... ...0 .... .... = Free Buffer: False" size="4" pos="56" show="0" value="0" unmaskedvalue="00020000"/>
      <field name="usb.transfer_flags.dir_in" showname=".... .... .... .... .... ..1. .... .... = Dir IN: True" size="4" pos="56" show="1" value="1" unmaskedvalue="00020000"/>
      <field name="usb.transfer_flags.dma_map_single" showname=".... .... .... ...0 .... .... .... .... = DMA Map Single: False" size="4" pos="56" show="0" value="0" unmaskedvalue="00020000"/>
      <field name="usb.transfer_flags.dma_map_page" showname=".... .... .... ..0. .... .... .... .... = DMA Map Page: False" size="4" pos="56" show="0" value="0" unmaskedvalue="00020000"/>
      <field name="usb.transfer_flags.dma_map_sg" showname=".... .... .... .0.. .... .... .... .... = DMA Map SG: False" size="4" pos="56" show="0" value="0" unmaskedvalue="00020000"/>
      <field name="usb.transfer_flags.map_local" showname=".... .... .... 0... .... .... .... .... = Map Local: False" size="4" pos="56" show="0" value="0" unmaskedvalue="00020000"/>
      <field name="usb.transfer_flags.setup_map_single" showname=".... .... ...0 .... .... .... .... .... = Setup Map Single: False" size="4" pos="56" show="0" value="0" unmaskedvalue="00020000"/>
      <field name="usb.transfer_flags.setup_map_local" showname=".... .... ..0. .... .... .... .... .... = Setup Map Local: False" size="4" pos="56" show="0" value="0" unmaskedvalue="00020000"/>
      <field name="usb.transfer_flags.dma_sg_combined" showname=".... .... .0.. .... .... .... .... .... = DMA S-G Combined: False" size="4" pos="56" show="0" value="0" unmaskedvalue="00020000"/>
      <field name="usb.transfer_flags.aligned_temp_buffer" showname=".... .... 0... .... .... .... .... .... = Aligned Temp Buffer: False" size="4" pos="56" show="0" value="0" unmaskedvalue="00020000"/>
    </field>
    <field name="usb.iso.numdesc" showname="Number of ISO descriptors: 0" size="4" pos="60" show="0" value="00000000"/>
  </proto>
</packet>

<packet>
  <proto name="geninfo" pos="0" showname="General information" size="65">
    <field name="num" pos="0" show="491" showname="Number" value="1eb" size="65"/>
    <field name="len" pos="0" show="65" showname="Frame Length" value="41" size="65"/>
    <field name="caplen" pos="0" show="65" showname="Captured Length" value="41" size="65"/>
    <field name="timestamp" pos="0" show="Jul 31, 2023 16:24:23.229815000 EDT" showname="Captured Time" value="1690835063.229815000" size="65"/>
  </proto>
  <proto name="frame" showname="Frame 491: 65 bytes on wire (520 bits), 65 bytes captured (520 bits) on interface usbmon1, id 0" size="65" pos="0">
    <field name="frame.section_number" showname="Section number: 1" size="0" pos="0" show="1"/>
    <field name="frame.interface_id" showname="Interface id: 0 (usbmon1)" size="0" pos="0" show="0">
      <field name="frame.interface_name" showname="Interface name: usbmon1" size="0" pos="0" show="usbmon1"/>
    </field>
    <field name="frame.encap_type" showname="Encapsulation type: USB packets with Linux header and padding (115)" size="0" pos="0" show="115"/>
    <field name="frame.time" showname="Arrival Time: Jul 31, 2023 16:24:23.229815000 EDT" size="0" pos="0" show="Jul 31, 2023 16:24:23.229815000 EDT"/>
    <field name="frame.offset_shift" showname="Time shift for this packet: 0.000000000 seconds" size="0" pos="0" show="0.000000000"/>
    <field name="frame.time_epoch" showname="Epoch Time: 1690835063.229815000 seconds" size="0" pos="0" show="1690835063.229815000"/>
    <field name="frame.time_delta" showname="Time delta from previous captured frame: 0.000046000 seconds" size="0" pos="0" show="0.000046000"/>
    <field name="frame.time_delta_displayed" showname="Time delta from previous displayed frame: 0.000046000 seconds" size="0" pos="0" show="0.000046000"/>
    <field name="frame.time_relative" showname="Time since reference or first frame: 8.096275000 seconds" size="0" pos="0" show="8.096275000"/>
    <field name="frame.number" showname="Frame Number: 491" size="0" pos="0" show="491"/>
    <field name="frame.len" showname="Frame Length: 65 bytes (520 bits)" size="0" pos="0" show="65"/>
    <field name="frame.cap_len" showname="Capture Length: 65 bytes (520 bits)" size="0" pos="0" show="65"/>
    <field name="frame.marked" showname="Frame is marked: False" size="0" pos="0" show="0"/>
    <field name="frame.ignored" showname="Frame is ignored: False" size="0" pos="0" show="0"/>
    <field name="frame.protocols" showname="Protocols in frame: usb" size="0" pos="0" show="usb"/>
  </proto>
  <proto name="usb" showname="USB URB" size="64" pos="0">
    <field name="usb.src" showname="Source: 1.14.3" size="0" pos="0" show="1.14.3"/>
    <field name="usb.addr" showname="Source or Destination: 1.14.3" hide="yes" size="0" pos="0" show="1.14.3"/>
    <field name="usb.dst" showname="Destination: host" size="0" pos="0" show="host"/>
    <field name="usb.addr" showname="Source or Destination: host" hide="yes" size="0" pos="0" show="host"/>
    <field name="usb.urb_id" showname="URB id: 0xffffa0f83c16e480" size="8" pos="0" show="0xffffa0f83c16e480" value="80e4163cf8a0ffff"/>
    <field name="usb.urb_type" showname="URB type: URB_COMPLETE (&#x27;C&#x27;)" size="1" pos="8" show="&#x27;C&#x27;" value="43"/>
    <field name="usb.transfer_type" showname="URB transfer type: URB_BULK (0x03)" size="1" pos="9" show="0x03" value="03"/>
    <field name="usb.endpoint_address" showname="Endpoint: 0x83, Direction: IN" size="1" pos="10" show="0x83" value="83">
      <field name="usb.endpoint_address.direction" showname="1... .... = Direction: IN (1)" size="1" pos="10" show="1" value="1" unmaskedvalue="83"/>
      <field name="usb.endpoint_address.number" showname=".... 0011 = Endpoint number: 3" size="1" pos="10" show="3" value="3" unmaskedvalue="83"/>
    </field>
    <field name="usb.device_address" showname="Device: 14" size="1" pos="11" show="14" value="0e"/>
    <field name="usb.bus_id" showname="URB bus id: 1" size="2" pos="12" show="1" value="0100"/>
    <field name="usb.setup_flag" showname="Device setup request: not relevant (&#x27;-&#x27;)" size="1" pos="14" show="&#x27;-&#x27;" value="2d"/>
    <field name="usb.data_flag" showname="Data: present (&#x27;\0&#x27;)" size="1" pos="15" show="&#x27;\0&#x27;" value="00"/>
    <field name="usb.urb_ts_sec" showname="URB sec: 1690835063" size="8" pos="16" show="1690835063" value="7718c86400000000"/>
    <field name="usb.urb_ts_usec" showname="URB usec: 229815" size="4" pos="24" show="229815" value="b7810300"/>
    <field name="usb.urb_status" showname="URB status: Success (0)" size="4" pos="28" show="0" value="00000000"/>
    <field name="usb.urb_len" showname="URB length [bytes]: 1" size="4" pos="32" show="1" value="01000000"/>
    <field name="usb.data_len" showname="Data length [bytes]: 1" size="4" pos="36" show="1" value="01000000"/>
    <field name="usb.request_in" showname="Request in: 490" size="0" pos="0" show="490"/>
    <field name="usb.time" showname="Time from request: 0.000046000 seconds" size="0" pos="0" show="0.000046000"/>
    <field name="usb.bInterfaceClass" showname="bInterfaceClass: Unknown (0xffff)" size="0" pos="0" show="0xff"/>
    <field name="usb.unused_setup_header" showname="Unused Setup Header" size="8" pos="40" show="" value=""/>
    <field name="usb.interval" showname="Interval: 0" size="4" pos="48" show="0" value="00000000"/>
    <field name="usb.start_frame" showname="Start frame: 0" size="4" pos="52" show="0" value="00000000"/>
    <field name="usb.copy_of_transfer_flags" showname="Copy of Transfer Flags: 0x00000200, Dir IN" size="4" pos="56" show="0x00000200" value="00020000">
      <field name="usb.transfer_flags.short_not_ok" showname=".... .... .... .... .... .... .... ...0 = Short not OK: False" size="4" pos="56" show="0" value="0" unmaskedvalue="00020000"/>
      <field name="usb.transfer_flags.iso_asap" showname=".... .... .... .... .... .... .... ..0. = ISO ASAP: False" size="4" pos="56" show="0" value="0" unmaskedvalue="00020000"/>
      <field name="usb.transfer_flags.no_transfer_dma_map" showname=".... .... .... .... .... .... .... .0.. = No transfer DMA map: False" size="4" pos="56" show="0" value="0" unmaskedvalue="00020000"/>
      <field name="usb.transfer_flags.no_fsbr" showname=".... .... .... .... .... .... ..0. .... = No FSBR: False" size="4" pos="56" show="0" value="0" unmaskedvalue="00020000"/>
      <field name="usb.transfer_flags.zero_packet" showname=".... .... .... .... .... .... .0.. .... = Zero Packet: False" size="4" pos="56" show="0" value="0" unmaskedvalue="00020000"/>
      <field name="usb.transfer_flags.no_interrupt" showname=".... .... .... .... .... .... 0... .... = No Interrupt: False" size="4" pos="56" show="0" value="0" unmaskedvalue="00020000"/>
      <field name="usb.transfer_flags.free_buffer" showname=".... .... .... .... .... ...0 .... .... = Free Buffer: False" size="4" pos="56" show="0" value="0" unmaskedvalue="00020000"/>
      <field name="usb.transfer_flags.dir_in" showname=".... .... .... .... .... ..1. .... .... = Dir IN: True" size="4" pos="56" show="1" value="1" unmaskedvalue="00020000"/>
      <field name="usb.transfer_flags.dma_map_single" showname=".... .... .... ...0 .... .... .... .... = DMA Map Single: False" size="4" pos="56" show="0" value="0" unmaskedvalue="00020000"/>
      <field name="usb.transfer_flags.dma_map_page" showname=".... .... .... ..0. .... .... .... .... = DMA Map Page: False" size="4" pos="56" show="0" value="0" unmaskedvalue="00020000"/>
      <field name="usb.transfer_flags.dma_map_sg" showname=".... .... .... .0.. .... .... .... .... = DMA Map SG: False" size="4" pos="56" show="0" value="0" unmaskedvalue="00020000"/>
      <field name="usb.transfer_flags.map_local" showname=".... .... .... 0... .... .... .... .... = Map Local: False" size="4" pos="56" show="0" value="0" unmaskedvalue="00020000"/>
      <field name="usb.transfer_flags.setup_map_single" showname=".... .... ...0 .... .... .... .... .... = Setup Map Single: False" size="4" pos="56" show="0" value="0" unmaskedvalue="00020000"/>
      <field name="usb.transfer_flags.setup_map_local" showname=".... .... ..0. .... .... .... .... .... = Setup Map Local: False" size="4" pos="56" show="0" value="0" unmaskedvalue="00020000"/>
      <field name="usb.transfer_flags.dma_sg_combined" showname=".... .... .0.. .... .... .... .... .... = DMA S-G Combined: False" size="4" pos="56" show="0" value="0" unmaskedvalue="00020000"/>
      <field name="usb.transfer_flags.aligned_temp_buffer" showname=".... .... 0... .... .... .... .... .... = Aligned Temp Buffer: False" size="4" pos="56" show="0" value="0" unmaskedvalue="00020000"/>
    </field>
    <field name="usb.iso.numdesc" showname="Number of ISO descriptors: 0" size="4" pos="60" show="0" value="00000000"/>
  </proto>
  <proto name="fake-field-wrapper">
    <field name="usb.capdata" showname="Leftover Capture Data: 04" size="1" pos="64" show="04" value="04"/>
  </proto>
</packet>

<packet>
  <proto name="geninfo" pos="0" showname="General information" size="64">
    <field name="num" pos="0" show="492" showname="Number" value="1ec" size="64"/>
    <field name="len" pos="0" show="64" showname="Frame Length" value="40" size="64"/>
    <field name="caplen" pos="0" show="64" showname="Captured Length" value="40" size="64"/>
    <field name="timestamp" pos="0" show="Jul 31, 2023 16:24:23.230047000 EDT" showname="Captured Time" value="1690835063.230047000" size="64"/>
  </proto>
  <proto name="frame" showname="Frame 492: 64 bytes on wire (512 bits), 64 bytes captured (512 bits) on interface usbmon1, id 0" size="64" pos="0">
    <field name="frame.section_number" showname="Section number: 1" size="0" pos="0" show="1"/>
    <field name="frame.interface_id" showname="Interface id: 0 (usbmon1)" size="0" pos="0" show="0">
      <field name="frame.interface_name" showname="Interface name: usbmon1" size="0" pos="0" show="usbmon1"/>
    </field>
    <field name="frame.encap_type" showname="Encapsulation type: USB packets with Linux header and padding (115)" size="0" pos="0" show="115"/>
    <field name="frame.time" showname="Arrival Time: Jul 31, 2023 16:24:23.230047000 EDT" size="0" pos="0" show="Jul 31, 2023 16:24:23.230047000 EDT"/>
    <field name="frame.offset_shift" showname="Time shift for this packet: 0.000000000 seconds" size="0" pos="0" show="0.000000000"/>
    <field name="frame.time_epoch" showname="Epoch Time: 1690835063.230047000 seconds" size="0" pos="0" show="1690835063.230047000"/>
    <field name="frame.time_delta" showname="Time delta from previous captured frame: 0.000232000 seconds" size="0" pos="0" show="0.000232000"/>
    <field name="frame.time_delta_displayed" showname="Time delta from previous displayed frame: 0.000232000 seconds" size="0" pos="0" show="0.000232000"/>
    <field name="frame.time_relative" showname="Time since reference or first frame: 8.096507000 seconds" size="0" pos="0" show="8.096507000"/>
    <field name="frame.number" showname="Frame Number: 492" size="0" pos="0" show="492"/>
    <field name="frame.len" showname="Frame Length: 64 bytes (512 bits)" size="0" pos="0" show="64"/>
    <field name="frame.cap_len" showname="Capture Length: 64 bytes (512 bits)" size="0" pos="0" show="64"/>
    <field name="frame.marked" showname="Frame is marked: False" size="0" pos="0" show="0"/>
    <field name="frame.ignored" showname="Frame is ignored: False" size="0" pos="0" show="0"/>
    <field name="frame.protocols" showname="Protocols in frame: usb" size="0" pos="0" show="usb"/>
  </proto>
  <proto name="usb" showname="USB URB" size="64" pos="0">
    <field name="usb.src" showname="Source: host" size="0" pos="0" show="host"/>
    <field name="usb.addr" showname="Source or Destination: host" hide="yes" size="0" pos="0" show="host"/>
    <field name="usb.dst" showname="Destination: 1.14.3" size="0" pos="0" show="1.14.3"/>
    <field name="usb.addr" showname="Source or Destination: 1.14.3" hide="yes" size="0" pos="0" show="1.14.3"/>
    <field name="usb.urb_id" showname="URB id: 0xffffa0f83c16e480" size="8" pos="0" show="0xffffa0f83c16e480" value="80e4163cf8a0ffff"/>
    <field name="usb.urb_type" showname="URB type: URB_SUBMIT (&#x27;S&#x27;)" size="1" pos="8" show="&#x27;S&#x27;" value="53"/>
    <field name="usb.transfer_type" showname="URB transfer type: URB_BULK (0x03)" size="1" pos="9" show="0x03" value="03"/>
    <field name="usb.endpoint_address" showname="Endpoint: 0x83, Direction: IN" size="1" pos="10" show="0x83" value="83">
      <field name="usb.endpoint_address.direction" showname="1... .... = Direction: IN (1)" size="1" pos="10" show="1" value="1" unmaskedvalue="83"/>
      <field name="usb.endpoint_address.number" showname=".... 0011 = Endpoint number: 3" size="1" pos="10" show="3" value="3" unmaskedvalue="83"/>
    </field>
    <field name="usb.device_address" showname="Device: 14" size="1" pos="11" show="14" value="0e"/>
    <field name="usb.bus_id" showname="URB bus id: 1" size="2" pos="12" show="1" value="0100"/>
    <field name="usb.setup_flag" showname="Device setup request: not relevant (&#x27;-&#x27;)" size="1" pos="14" show="&#x27;-&#x27;" value="2d"/>
    <field name="usb.data_flag" showname="Data: not present (&#x27;&lt;&#x27;)" size="1" pos="15" show="&#x27;&lt;&#x27;" value="3c"/>
    <field name="usb.urb_ts_sec" showname="URB sec: 1690835063" size="8" pos="16" show="1690835063" value="7718c86400000000"/>
    <field name="usb.urb_ts_usec" showname="URB usec: 230047" size="4" pos="24" show="230047" value="9f820300"/>
    <field name="usb.urb_status" showname="URB status: Operation now in progress (-EINPROGRESS) (-115)" size="4" pos="28" show="-115" value="8dffffff"/>
    <field name="usb.urb_len" showname="URB length [bytes]: 64" size="4" pos="32" show="64" value="40000000"/>
    <field name="usb.data_len" showname="Data length [bytes]: 0" size="4" pos="36" show="0" value="00000000"/>
    <field name="usb.response_in" showname="Response in: 493" size="0" pos="0" show="493"/>
    <field name="usb.bInterfaceClass" showname="bInterfaceClass: Unknown (0xffff)" size="0" pos="0" show="0xff"/>
    <field name="usb.unused_setup_header" showname="Unused Setup Header" size="8" pos="40" show="" value=""/>
    <field name="usb.interval" showname="Interval: 0" size="4" pos="48" show="0" value="00000000"/>
    <field name="usb.start_frame" showname="Start frame: 0" size="4" pos="52" show="0" value="00000000"/>
    <field name="usb.copy_of_transfer_flags" showname="Copy of Transfer Flags: 0x00000200, Dir IN" size="4" pos="56" show="0x00000200" value="00020000">
      <field name="usb.transfer_flags.short_not_ok" showname=".... .... .... .... .... .... .... ...0 = Short not OK: False" size="4" pos="56" show="0" value="0" unmaskedvalue="00020000"/>
      <field name="usb.transfer_flags.iso_asap" showname=".... .... .... .... .... .... .... ..0. = ISO ASAP: False" size="4" pos="56" show="0" value="0" unmaskedvalue="00020000"/>
      <field name="usb.transfer_flags.no_transfer_dma_map" showname=".... .... .... .... .... .... .... .0.. = No transfer DMA map: False" size="4" pos="56" show="0" value="0" unmaskedvalue="00020000"/>
      <field name="usb.transfer_flags.no_fsbr" showname=".... .... .... .... .... .... ..0. .... = No FSBR: False" size="4" pos="56" show="0" value="0" unmaskedvalue="00020000"/>
      <field name="usb.transfer_flags.zero_packet" showname=".... .... .... .... .... .... .0.. .... = Zero Packet: False" size="4" pos="56" show="0" value="0" unmaskedvalue="00020000"/>
      <field name="usb.transfer_flags.no_interrupt" showname=".... .... .... .... .... .... 0... .... = No Interrupt: False" size="4" pos="56" show="0" value="0" unmaskedvalue="00020000"/>
      <field name="usb.transfer_flags.free_buffer" showname=".... .... .... .... .... ...0 .... .... = Free Buffer: False" size="4" pos="56" show="0" value="0" unmaskedvalue="00020000"/>
      <field name="usb.transfer_flags.dir_in" showname=".... .... .... .... .... ..1. .... .... = Dir IN: True" size="4" pos="56" show="1" value="1" unmaskedvalue="00020000"/>
      <field name="usb.transfer_flags.dma_map_single" showname=".... .... .... ...0 .... .... .... .... = DMA Map Single: False" size="4" pos="56" show="0" value="0" unmaskedvalue="00020000"/>
      <field name="usb.transfer_flags.dma_map_page" showname=".... .... .... ..0. .... .... .... .... = DMA Map Page: False" size="4" pos="56" show="0" value="0" unmaskedvalue="00020000"/>
      <field name="usb.transfer_flags.dma_map_sg" showname=".... .... .... .0.. .... .... .... .... = DMA Map SG: False" size="4" pos="56" show="0" value="0" unmaskedvalue="00020000"/>
      <field name="usb.transfer_flags.map_local" showname=".... .... .... 0... .... .... .... .... = Map Local: False" size="4" pos="56" show="0" value="0" unmaskedvalue="00020000"/>
      <field name="usb.transfer_flags.setup_map_single" showname=".... .... ...0 .... .... .... .... .... = Setup Map Single: False" size="4" pos="56" show="0" value="0" unmaskedvalue="00020000"/>
      <field name="usb.transfer_flags.setup_map_local" showname=".... .... ..0. .... .... .... .... .... = Setup Map Local: False" size="4" pos="56" show="0" value="0" unmaskedvalue="00020000"/>
      <field name="usb.transfer_flags.dma_sg_combined" showname=".... .... .0.. .... .... .... .... .... = DMA S-G Combined: False" size="4" pos="56" show="0" value="0" unmaskedvalue="00020000"/>
      <field name="usb.transfer_flags.aligned_temp_buffer" showname=".... .... 0... .... .... .... .... .... = Aligned Temp Buffer: False" size="4" pos="56" show="0" value="0" unmaskedvalue="00020000"/>
    </field>
    <field name="usb.iso.numdesc" showname="Number of ISO descriptors: 0" size="4" pos="60" show="0" value="00000000"/>
  </proto>
</packet>

<packet>
  <proto name="geninfo" pos="0" showname="General information" size="65">
    <field name="num" pos="0" show="493" showname="Number" value="1ed" size="65"/>
    <field name="len" pos="0" show="65" showname="Frame Length" value="41" size="65"/>
    <field name="caplen" pos="0" show="65" showname="Captured Length" value="41" size="65"/>
    <field name="timestamp" pos="0" show="Jul 31, 2023 16:24:23.230094000 EDT" showname="Captured Time" value="1690835063.230094000" size="65"/>
  </proto>
  <proto name="frame" showname="Frame 493: 65 bytes on wire (520 bits), 65 bytes captured (520 bits) on interface usbmon1, id 0" size="65" pos="0">
    <field name="frame.section_number" showname="Section number: 1" size="0" pos="0" show="1"/>
    <field name="frame.interface_id" showname="Interface id: 0 (usbmon1)" size="0" pos="0" show="0">
      <field name="frame.interface_name" showname="Interface name: usbmon1" size="0" pos="0" show="usbmon1"/>
    </field>
    <field name="frame.encap_type" showname="Encapsulation type: USB packets with Linux header and padding (115)" size="0" pos="0" show="115"/>
    <field name="frame.time" showname="Arrival Time: Jul 31, 2023 16:24:23.230094000 EDT" size="0" pos="0" show="Jul 31, 2023 16:24:23.230094000 EDT"/>
    <field name="frame.offset_shift" showname="Time shift for this packet: 0.000000000 seconds" size="0" pos="0" show="0.000000000"/>
    <field name="frame.time_epoch" showname="Epoch Time: 1690835063.230094000 seconds" size="0" pos="0" show="1690835063.230094000"/>
    <field name="frame.time_delta" showname="Time delta from previous captured frame: 0.000047000 seconds" size="0" pos="0" show="0.000047000"/>
    <field name="frame.time_delta_displayed" showname="Time delta from previous displayed frame: 0.000047000 seconds" size="0" pos="0" show="0.000047000"/>
    <field name="frame.time_relative" showname="Time since reference or first frame: 8.096554000 seconds" size="0" pos="0" show="8.096554000"/>
    <field name="frame.number" showname="Frame Number: 493" size="0" pos="0" show="493"/>
    <field name="frame.len" showname="Frame Length: 65 bytes (520 bits)" size="0" pos="0" show="65"/>
    <field name="frame.cap_len" showname="Capture Length: 65 bytes (520 bits)" size="0" pos="0" show="65"/>
    <field name="frame.marked" showname="Frame is marked: False" size="0" pos="0" show="0"/>
    <field name="frame.ignored" showname="Frame is ignored: False" size="0" pos="0" show="0"/>
    <field name="frame.protocols" showname="Protocols in frame: usb" size="0" pos="0" show="usb"/>
  </proto>
  <proto name="usb" showname="USB URB" size="64" pos="0">
    <field name="usb.src" showname="Source: 1.14.3" size="0" pos="0" show="1.14.3"/>
    <field name="usb.addr" showname="Source or Destination: 1.14.3" hide="yes" size="0" pos="0" show="1.14.3"/>
    <field name="usb.dst" showname="Destination: host" size="0" pos="0" show="host"/>
    <field name="usb.addr" showname="Source or Destination: host" hide="yes" size="0" pos="0" show="host"/>
    <field name="usb.urb_id" showname="URB id: 0xffffa0f83c16e480" size="8" pos="0" show="0xffffa0f83c16e480" value="80e4163cf8a0ffff"/>
    <field name="usb.urb_type" showname="URB type: URB_COMPLETE (&#x27;C&#x27;)" size="1" pos="8" show="&#x27;C&#x27;" value="43"/>
    <field name="usb.transfer_type" showname="URB transfer type: URB_BULK (0x03)" size="1" pos="9" show="0x03" value="03"/>
    <field name="usb.endpoint_address" showname="Endpoint: 0x83, Direction: IN" size="1" pos="10" show="0x83" value="83">
      <field name="usb.endpoint_address.direction" showname="1... .... = Direction: IN (1)" size="1" pos="10" show="1" value="1" unmaskedvalue="83"/>
      <field name="usb.endpoint_address.number" showname=".... 0011 = Endpoint number: 3" size="1" pos="10" show="3" value="3" unmaskedvalue="83"/>
    </field>
    <field name="usb.device_address" showname="Device: 14" size="1" pos="11" show="14" value="0e"/>
    <field name="usb.bus_id" showname="URB bus id: 1" size="2" pos="12" show="1" value="0100"/>
    <field name="usb.setup_flag" showname="Device setup request: not relevant (&#x27;-&#x27;)" size="1" pos="14" show="&#x27;-&#x27;" value="2d"/>
    <field name="usb.data_flag" showname="Data: present (&#x27;\0&#x27;)" size="1" pos="15" show="&#x27;\0&#x27;" value="00"/>
    <field name="usb.urb_ts_sec" showname="URB sec: 1690835063" size="8" pos="16" show="1690835063" value="7718c86400000000"/>
    <field name="usb.urb_ts_usec" showname="URB usec: 230094" size="4" pos="24" show="230094" value="ce820300"/>
    <field name="usb.urb_status" showname="URB status: Success (0)" size="4" pos="28" show="0" value="00000000"/>
    <field name="usb.urb_len" showname="URB length [bytes]: 1" size="4" pos="32" show="1" value="01000000"/>
    <field name="usb.data_len" showname="Data length [bytes]: 1" size="4" pos="36" show="1" value="01000000"/>
    <field name="usb.request_in" showname="Request in: 492" size="0" pos="0" show="492"/>
    <field name="usb.time" showname="Time from request: 0.000047000 seconds" size="0" pos="0" show="0.000047000"/>
    <field name="usb.bInterfaceClass" showname="bInterfaceClass: Unknown (0xffff)" size="0" pos="0" show="0xff"/>
    <field name="usb.unused_setup_header" showname="Unused Setup Header" size="8" pos="40" show="" value=""/>
    <field name="usb.interval" showname="Interval: 0" size="4" pos="48" show="0" value="00000000"/>
    <field name="usb.start_frame" showname="Start frame: 0" size="4" pos="52" show="0" value="00000000"/>
    <field name="usb.copy_of_transfer_flags" showname="Copy of Transfer Flags: 0x00000200, Dir IN" size="4" pos="56" show="0x00000200" value="00020000">
      <field name="usb.transfer_flags.short_not_ok" showname=".... .... .... .... .... .... .... ...0 = Short not OK: False" size="4" pos="56" show="0" value="0" unmaskedvalue="00020000"/>
      <field name="usb.transfer_flags.iso_asap" showname=".... .... .... .... .... .... .... ..0. = ISO ASAP: False" size="4" pos="56" show="0" value="0" unmaskedvalue="00020000"/>
      <field name="usb.transfer_flags.no_transfer_dma_map" showname=".... .... .... .... .... .... .... .0.. = No transfer DMA map: False" size="4" pos="56" show="0" value="0" unmaskedvalue="00020000"/>
      <field name="usb.transfer_flags.no_fsbr" showname=".... .... .... .... .... .... ..0. .... = No FSBR: False" size="4" pos="56" show="0" value="0" unmaskedvalue="00020000"/>
      <field name="usb.transfer_flags.zero_packet" showname=".... .... .... .... .... .... .0.. .... = Zero Packet: False" size="4" pos="56" show="0" value="0" unmaskedvalue="00020000"/>
      <field name="usb.transfer_flags.no_interrupt" showname=".... .... .... .... .... .... 0... .... = No Interrupt: False" size="4" pos="56" show="0" value="0" unmaskedvalue="00020000"/>
      <field name="usb.transfer_flags.free_buffer" showname=".... .... .... .... .... ...0 .... .... = Free Buffer: False" size="4" pos="56" show="0" value="0" unmaskedvalue="00020000"/>
      <field name="usb.transfer_flags.dir_in" showname=".... .... .... .... .... ..1. .... .... = Dir IN: True" size="4" pos="56" show="1" value="1" unmaskedvalue="00020000"/>
      <field name="usb.transfer_flags.dma_map_single" showname=".... .... .... ...0 .... .... .... .... = DMA Map Single: False" size="4" pos="56" show="0" value="0" unmaskedvalue="00020000"/>
      <field name="usb.transfer_flags.dma_map_page" showname=".... .... .... ..0. .... .... .... .... = DMA Map Page: False" size="4" pos="56" show="0" value="0" unmaskedvalue="00020000"/>
      <field name="usb.transfer_flags.dma_map_sg" showname=".... .... .... .0.. .... .... .... .... = DMA Map SG: False" size="4" pos="56" show="0" value="0" unmaskedvalue="00020000"/>
      <field name="usb.transfer_flags.map_local" showname=".... .... .... 0... .... .... .... .... = Map Local: False" size="4" pos="56" show="0" value="0" unmaskedvalue="00020000"/>
      <field name="usb.transfer_flags.setup_map_single" showname=".... .... ...0 .... .... .... .... .... = Setup Map Single: False" size="4" pos="56" show="0" value="0" unmaskedvalue="00020000"/>
      <field name="usb.transfer_flags.setup_map_local" showname=".... .... ..0. .... .... .... .... .... = Setup Map Local: False" size="4" pos="56" show="0" value="0" unmaskedvalue="00020000"/>
      <field name="usb.transfer_flags.dma_sg_combined" showname=".... .... .0.. .... .... .... .... .... = DMA S-G Combined: False" size="4" pos="56" show="0" value="0" unmaskedvalue="00020000"/>
      <field name="usb.transfer_flags.aligned_temp_buffer" showname=".... .... 0... .... .... .... .... .... = Aligned Temp Buffer: False" size="4" pos="56" show="0" value="0" unmaskedvalue="00020000"/>
    </field>
    <field name="usb.iso.numdesc" showname="Number of ISO descriptors: 0" size="4" pos="60" show="0" value="00000000"/>
  </proto>
  <proto name="fake-field-wrapper">
    <field name="usb.capdata" showname="Leftover Capture Data: 01" size="1" pos="64" show="01" value="01"/>
  </proto>
</packet>

<packet>
  <proto name="geninfo" pos="0" showname="General information" size="64">
    <field name="num" pos="0" show="494" showname="Number" value="1ee" size="64"/>
    <field name="len" pos="0" show="64" showname="Frame Length" value="40" size="64"/>
    <field name="caplen" pos="0" show="64" showname="Captured Length" value="40" size="64"/>
    <field name="timestamp" pos="0" show="Jul 31, 2023 16:24:23.230260000 EDT" showname="Captured Time" value="1690835063.230260000" size="64"/>
  </proto>
  <proto name="frame" showname="Frame 494: 64 bytes on wire (512 bits), 64 bytes captured (512 bits) on interface usbmon1, id 0" size="64" pos="0">
    <field name="frame.section_number" showname="Section number: 1" size="0" pos="0" show="1"/>
    <field name="frame.interface_id" showname="Interface id: 0 (usbmon1)" size="0" pos="0" show="0">
      <field name="frame.interface_name" showname="Interface name: usbmon1" size="0" pos="0" show="usbmon1"/>
    </field>
    <field name="frame.encap_type" showname="Encapsulation type: USB packets with Linux header and padding (115)" size="0" pos="0" show="115"/>
    <field name="frame.time" showname="Arrival Time: Jul 31, 2023 16:24:23.230260000 EDT" size="0" pos="0" show="Jul 31, 2023 16:24:23.230260000 EDT"/>
    <field name="frame.offset_shift" showname="Time shift for this packet: 0.000000000 seconds" size="0" pos="0" show="0.000000000"/>
    <field name="frame.time_epoch" showname="Epoch Time: 1690835063.230260000 seconds" size="0" pos="0" show="1690835063.230260000"/>
    <field name="frame.time_delta" showname="Time delta from previous captured frame: 0.000166000 seconds" size="0" pos="0" show="0.000166000"/>
    <field name="frame.time_delta_displayed" showname="Time delta from previous displayed frame: 0.000166000 seconds" size="0" pos="0" show="0.000166000"/>
    <field name="frame.time_relative" showname="Time since reference or first frame: 8.096720000 seconds" size="0" pos="0" show="8.096720000"/>
    <field name="frame.number" showname="Frame Number: 494" size="0" pos="0" show="494"/>
    <field name="frame.len" showname="Frame Length: 64 bytes (512 bits)" size="0" pos="0" show="64"/>
    <field name="frame.cap_len" showname="Capture Length: 64 bytes (512 bits)" size="0" pos="0" show="64"/>
    <field name="frame.marked" showname="Frame is marked: False" size="0" pos="0" show="0"/>
    <field name="frame.ignored" showname="Frame is ignored: False" size="0" pos="0" show="0"/>
    <field name="frame.protocols" showname="Protocols in frame: usb" size="0" pos="0" show="usb"/>
  </proto>
  <proto name="usb" showname="USB URB" size="64" pos="0">
    <field name="usb.src" showname="Source: host" size="0" pos="0" show="host"/>
    <field name="usb.addr" showname="Source or Destination: host" hide="yes" size="0" pos="0" show="host"/>
    <field name="usb.dst" showname="Destination: 1.14.3" size="0" pos="0" show="1.14.3"/>
    <field name="usb.addr" showname="Source or Destination: 1.14.3" hide="yes" size="0" pos="0" show="1.14.3"/>
    <field name="usb.urb_id" showname="URB id: 0xffffa0f83c16f440" size="8" pos="0" show="0xffffa0f83c16f440" value="40f4163cf8a0ffff"/>
    <field name="usb.urb_type" showname="URB type: URB_SUBMIT (&#x27;S&#x27;)" size="1" pos="8" show="&#x27;S&#x27;" value="53"/>
    <field name="usb.transfer_type" showname="URB transfer type: URB_BULK (0x03)" size="1" pos="9" show="0x03" value="03"/>
    <field name="usb.endpoint_address" showname="Endpoint: 0x83, Direction: IN" size="1" pos="10" show="0x83" value="83">
      <field name="usb.endpoint_address.direction" showname="1... .... = Direction: IN (1)" size="1" pos="10" show="1" value="1" unmaskedvalue="83"/>
      <field name="usb.endpoint_address.number" showname=".... 0011 = Endpoint number: 3" size="1" pos="10" show="3" value="3" unmaskedvalue="83"/>
    </field>
    <field name="usb.device_address" showname="Device: 14" size="1" pos="11" show="14" value="0e"/>
    <field name="usb.bus_id" showname="URB bus id: 1" size="2" pos="12" show="1" value="0100"/>
    <field name="usb.setup_flag" showname="Device setup request: not relevant (&#x27;-&#x27;)" size="1" pos="14" show="&#x27;-&#x27;" value="2d"/>
    <field name="usb.data_flag" showname="Data: not present (&#x27;&lt;&#x27;)" size="1" pos="15" show="&#x27;&lt;&#x27;" value="3c"/>
    <field name="usb.urb_ts_sec" showname="URB sec: 1690835063" size="8" pos="16" show="1690835063" value="7718c86400000000"/>
    <field name="usb.urb_ts_usec" showname="URB usec: 230260" size="4" pos="24" show="230260" value="74830300"/>
    <field name="usb.urb_status" showname="URB status: Operation now in progress (-EINPROGRESS) (-115)" size="4" pos="28" show="-115" value="8dffffff"/>
    <field name="usb.urb_len" showname="URB length [bytes]: 64" size="4" pos="32" show="64" value="40000000"/>
    <field name="usb.data_len" showname="Data length [bytes]: 0" size="4" pos="36" show="0" value="00000000"/>
    <field name="usb.response_in" showname="Response in: 495" size="0" pos="0" show="495"/>
    <field name="usb.bInterfaceClass" showname="bInterfaceClass: Unknown (0xffff)" size="0" pos="0" show="0xff"/>
    <field name="usb.unused_setup_header" showname="Unused Setup Header" size="8" pos="40" show="" value=""/>
    <field name="usb.interval" showname="Interval: 0" size="4" pos="48" show="0" value="00000000"/>
    <field name="usb.start_frame" showname="Start frame: 0" size="4" pos="52" show="0" value="00000000"/>
    <field name="usb.copy_of_transfer_flags" showname="Copy of Transfer Flags: 0x00000200, Dir IN" size="4" pos="56" show="0x00000200" value="00020000">
      <field name="usb.transfer_flags.short_not_ok" showname=".... .... .... .... .... .... .... ...0 = Short not OK: False" size="4" pos="56" show="0" value="0" unmaskedvalue="00020000"/>
      <field name="usb.transfer_flags.iso_asap" showname=".... .... .... .... .... .... .... ..0. = ISO ASAP: False" size="4" pos="56" show="0" value="0" unmaskedvalue="00020000"/>
      <field name="usb.transfer_flags.no_transfer_dma_map" showname=".... .... .... .... .... .... .... .0.. = No transfer DMA map: False" size="4" pos="56" show="0" value="0" unmaskedvalue="00020000"/>
      <field name="usb.transfer_flags.no_fsbr" showname=".... .... .... .... .... .... ..0. .... = No FSBR: False" size="4" pos="56" show="0" value="0" unmaskedvalue="00020000"/>
      <field name="usb.transfer_flags.zero_packet" showname=".... .... .... .... .... .... .0.. .... = Zero Packet: False" size="4" pos="56" show="0" value="0" unmaskedvalue="00020000"/>
      <field name="usb.transfer_flags.no_interrupt" showname=".... .... .... .... .... .... 0... .... = No Interrupt: False" size="4" pos="56" show="0" value="0" unmaskedvalue="00020000"/>
      <field name="usb.transfer_flags.free_buffer" showname=".... .... .... .... .... ...0 .... .... = Free Buffer: False" size="4" pos="56" show="0" value="0" unmaskedvalue="00020000"/>
      <field name="usb.transfer_flags.dir_in" showname=".... .... .... .... .... ..1. .... .... = Dir IN: True" size="4" pos="56" show="1" value="1" unmaskedvalue="00020000"/>
      <field name="usb.transfer_flags.dma_map_single" showname=".... .... .... ...0 .... .... .... .... = DMA Map Single: False" size="4" pos="56" show="0" value="0" unmaskedvalue="00020000"/>
      <field name="usb.transfer_flags.dma_map_page" showname=".... .... .... ..0. .... .... .... .... = DMA Map Page: False" size="4" pos="56" show="0" value="0" unmaskedvalue="00020000"/>
      <field name="usb.transfer_flags.dma_map_sg" showname=".... .... .... .0.. .... .... .... .... = DMA Map SG: False" size="4" pos="56" show="0" value="0" unmaskedvalue="00020000"/>
      <field name="usb.transfer_flags.map_local" showname=".... .... .... 0... .... .... .... .... = Map Local: False" size="4" pos="56" show="0" value="0" unmaskedvalue="00020000"/>
      <field name="usb.transfer_flags.setup_map_single" showname=".... .... ...0 .... .... .... .... .... = Setup Map Single: False" size="4" pos="56" show="0" value="0" unmaskedvalue="00020000"/>
      <field name="usb.transfer_flags.setup_map_local" showname=".... .... ..0. .... .... .... .... .... = Setup Map Local: False" size="4" pos="56" show="0" value="0" unmaskedvalue="00020000"/>
      <field name="usb.transfer_flags.dma_sg_combined" showname=".... .... .0.. .... .... .... .... .... = DMA S-G Combined: False" size="4" pos="56" show="0" value="0" unmaskedvalue="00020000"/>
      <field name="usb.transfer_flags.aligned_temp_buffer" showname=".... .... 0... .... .... .... .... .... = Aligned Temp Buffer: False" size="4" pos="56" show="0" value="0" unmaskedvalue="00020000"/>
    </field>
    <field name="usb.iso.numdesc" showname="Number of ISO descriptors: 0" size="4" pos="60" show="0" value="00000000"/>
  </proto>
</packet>

<packet>
  <proto name="geninfo" pos="0" showname="General information" size="65">
    <field name="num" pos="0" show="495" showname="Number" value="1ef" size="65"/>
    <field name="len" pos="0" show="65" showname="Frame Length" value="41" size="65"/>
    <field name="caplen" pos="0" show="65" showname="Captured Length" value="41" size="65"/>
    <field name="timestamp" pos="0" show="Jul 31, 2023 16:24:23.230307000 EDT" showname="Captured Time" value="1690835063.230307000" size="65"/>
  </proto>
  <proto name="frame" showname="Frame 495: 65 bytes on wire (520 bits), 65 bytes captured (520 bits) on interface usbmon1, id 0" size="65" pos="0">
    <field name="frame.section_number" showname="Section number: 1" size="0" pos="0" show="1"/>
    <field name="frame.interface_id" showname="Interface id: 0 (usbmon1)" size="0" pos="0" show="0">
      <field name="frame.interface_name" showname="Interface name: usbmon1" size="0" pos="0" show="usbmon1"/>
    </field>
    <field name="frame.encap_type" showname="Encapsulation type: USB packets with Linux header and padding (115)" size="0" pos="0" show="115"/>
    <field name="frame.time" showname="Arrival Time: Jul 31, 2023 16:24:23.230307000 EDT" size="0" pos="0" show="Jul 31, 2023 16:24:23.230307000 EDT"/>
    <field name="frame.offset_shift" showname="Time shift for this packet: 0.000000000 seconds" size="0" pos="0" show="0.000000000"/>
    <field name="frame.time_epoch" showname="Epoch Time: 1690835063.230307000 seconds" size="0" pos="0" show="1690835063.230307000"/>
    <field name="frame.time_delta" showname="Time delta from previous captured frame: 0.000047000 seconds" size="0" pos="0" show="0.000047000"/>
    <field name="frame.time_delta_displayed" showname="Time delta from previous displayed frame: 0.000047000 seconds" size="0" pos="0" show="0.000047000"/>
    <field name="frame.time_relative" showname="Time since reference or first frame: 8.096767000 seconds" size="0" pos="0" show="8.096767000"/>
    <field name="frame.number" showname="Frame Number: 495" size="0" pos="0" show="495"/>
    <field name="frame.len" showname="Frame Length: 65 bytes (520 bits)" size="0" pos="0" show="65"/>
    <field name="frame.cap_len" showname="Capture Length: 65 bytes (520 bits)" size="0" pos="0" show="65"/>
    <field name="frame.marked" showname="Frame is marked: False" size="0" pos="0" show="0"/>
    <field name="frame.ignored" showname="Frame is ignored: False" size="0" pos="0" show="0"/>
    <field name="frame.protocols" showname="Protocols in frame: usb" size="0" pos="0" show="usb"/>
  </proto>
  <proto name="usb" showname="USB URB" size="64" pos="0">
    <field name="usb.src" showname="Source: 1.14.3" size="0" pos="0" show="1.14.3"/>
    <field name="usb.addr" showname="Source or Destination: 1.14.3" hide="yes" size="0" pos="0" show="1.14.3"/>
    <field name="usb.dst" showname="Destination: host" size="0" pos="0" show="host"/>
    <field name="usb.addr" showname="Source or Destination: host" hide="yes" size="0" pos="0" show="host"/>
    <field name="usb.urb_id" showname="URB id: 0xffffa0f83c16f440" size="8" pos="0" show="0xffffa0f83c16f440" value="40f4163cf8a0ffff"/>
    <field name="usb.urb_type" showname="URB type: URB_COMPLETE (&#x27;C&#x27;)" size="1" pos="8" show="&#x27;C&#x27;" value="43"/>
    <field name="usb.transfer_type" showname="URB transfer type: URB_BULK (0x03)" size="1" pos="9" show="0x03" value="03"/>
    <field name="usb.endpoint_address" showname="Endpoint: 0x83, Direction: IN" size="1" pos="10" show="0x83" value="83">
      <field name="usb.endpoint_address.direction" showname="1... .... = Direction: IN (1)" size="1" pos="10" show="1" value="1" unmaskedvalue="83"/>
      <field name="usb.endpoint_address.number" showname=".... 0011 = Endpoint number: 3" size="1" pos="10" show="3" value="3" unmaskedvalue="83"/>
    </field>
    <field name="usb.device_address" showname="Device: 14" size="1" pos="11" show="14" value="0e"/>
    <field name="usb.bus_id" showname="URB bus id: 1" size="2" pos="12" show="1" value="0100"/>
    <field name="usb.setup_flag" showname="Device setup request: not relevant (&#x27;-&#x27;)" size="1" pos="14" show="&#x27;-&#x27;" value="2d"/>
    <field name="usb.data_flag" showname="Data: present (&#x27;\0&#x27;)" size="1" pos="15" show="&#x27;\0&#x27;" value="00"/>
    <field name="usb.urb_ts_sec" showname="URB sec: 1690835063" size="8" pos="16" show="1690835063" value="7718c86400000000"/>
    <field name="usb.urb_ts_usec" showname="URB usec: 230307" size="4" pos="24" show="230307" value="a3830300"/>
    <field name="usb.urb_status" showname="URB status: Success (0)" size="4" pos="28" show="0" value="00000000"/>
    <field name="usb.urb_len" showname="URB length [bytes]: 1" size="4" pos="32" show="1" value="01000000"/>
    <field name="usb.data_len" showname="Data length [bytes]: 1" size="4" pos="36" show="1" value="01000000"/>
    <field name="usb.request_in" showname="Request in: 494" size="0" pos="0" show="494"/>
    <field name="usb.time" showname="Time from request: 0.000047000 seconds" size="0" pos="0" show="0.000047000"/>
    <field name="usb.bInterfaceClass" showname="bInterfaceClass: Unknown (0xffff)" size="0" pos="0" show="0xff"/>
    <field name="usb.unused_setup_header" showname="Unused Setup Header" size="8" pos="40" show="" value=""/>
    <field name="usb.interval" showname="Interval: 0" size="4" pos="48" show="0" value="00000000"/>
    <field name="usb.start_frame" showname="Start frame: 0" size="4" pos="52" show="0" value="00000000"/>
    <field name="usb.copy_of_transfer_flags" showname="Copy of Transfer Flags: 0x00000200, Dir IN" size="4" pos="56" show="0x00000200" value="00020000">
      <field name="usb.transfer_flags.short_not_ok" showname=".... .... .... .... .... .... .... ...0 = Short not OK: False" size="4" pos="56" show="0" value="0" unmaskedvalue="00020000"/>
      <field name="usb.transfer_flags.iso_asap" showname=".... .... .... .... .... .... .... ..0. = ISO ASAP: False" size="4" pos="56" show="0" value="0" unmaskedvalue="00020000"/>
      <field name="usb.transfer_flags.no_transfer_dma_map" showname=".... .... .... .... .... .... .... .0.. = No transfer DMA map: False" size="4" pos="56" show="0" value="0" unmaskedvalue="00020000"/>
      <field name="usb.transfer_flags.no_fsbr" showname=".... .... .... .... .... .... ..0. .... = No FSBR: False" size="4" pos="56" show="0" value="0" unmaskedvalue="00020000"/>
      <field name="usb.transfer_flags.zero_packet" showname=".... .... .... .... .... .... .0.. .... = Zero Packet: False" size="4" pos="56" show="0" value="0" unmaskedvalue="00020000"/>
      <field name="usb.transfer_flags.no_interrupt" showname=".... .... .... .... .... .... 0... .... = No Interrupt: False" size="4" pos="56" show="0" value="0" unmaskedvalue="00020000"/>
      <field name="usb.transfer_flags.free_buffer" showname=".... .... .... .... .... ...0 .... .... = Free Buffer: False" size="4" pos="56" show="0" value="0" unmaskedvalue="00020000"/>
      <field name="usb.transfer_flags.dir_in" showname=".... .... .... .... .... ..1. .... .... = Dir IN: True" size="4" pos="56" show="1" value="1" unmaskedvalue="00020000"/>
      <field name="usb.transfer_flags.dma_map_single" showname=".... .... .... ...0 .... .... .... .... = DMA Map Single: False" size="4" pos="56" show="0" value="0" unmaskedvalue="00020000"/>
      <field name="usb.transfer_flags.dma_map_page" showname=".... .... .... ..0. .... .... .... .... = DMA Map Page: False" size="4" pos="56" show="0" value="0" unmaskedvalue="00020000"/>
      <field name="usb.transfer_flags.dma_map_sg" showname=".... .... .... .0.. .... .... .... .... = DMA Map SG: False" size="4" pos="56" show="0" value="0" unmaskedvalue="00020000"/>
      <field name="usb.transfer_flags.map_local" showname=".... .... .... 0... .... .... .... .... = Map Local: False" size="4" pos="56" show="0" value="0" unmaskedvalue="00020000"/>
      <field name="usb.transfer_flags.setup_map_single" showname=".... .... ...0 .... .... .... .... .... = Setup Map Single: False" size="4" pos="56" show="0" value="0" unmaskedvalue="00020000"/>
      <field name="usb.transfer_flags.setup_map_local" showname=".... .... ..0. .... .... .... .... .... = Setup Map Local: False" size="4" pos="56" show="0" value="0" unmaskedvalue="00020000"/>
      <field name="usb.transfer_flags.dma_sg_combined" showname=".... .... .0.. .... .... .... .... .... = DMA S-G Combined: False" size="4" pos="56" show="0" value="0" unmaskedvalue="00020000"/>
      <field name="usb.transfer_flags.aligned_temp_buffer" showname=".... .... 0... .... .... .... .... .... = Aligned Temp Buffer: False" size="4" pos="56" show="0" value="0" unmaskedvalue="00020000"/>
    </field>
    <field name="usb.iso.numdesc" showname="Number of ISO descriptors: 0" size="4" pos="60" show="0" value="00000000"/>
  </proto>
  <proto name="fake-field-wrapper">
    <field name="usb.capdata" showname="Leftover Capture Data: 2d" size="1" pos="64" show="2d" value="2d"/>
  </proto>
</packet>

<packet>
  <proto name="geninfo" pos="0" showname="General information" size="64">
    <field name="num" pos="0" show="496" showname="Number" value="1f0" size="64"/>
    <field name="len" pos="0" show="64" showname="Frame Length" value="40" size="64"/>
    <field name="caplen" pos="0" show="64" showname="Captured Length" value="40" size="64"/>
    <field name="timestamp" pos="0" show="Jul 31, 2023 16:24:23.230466000 EDT" showname="Captured Time" value="1690835063.230466000" size="64"/>
  </proto>
  <proto name="frame" showname="Frame 496: 64 bytes on wire (512 bits), 64 bytes captured (512 bits) on interface usbmon1, id 0" size="64" pos="0">
    <field name="frame.section_number" showname="Section number: 1" size="0" pos="0" show="1"/>
    <field name="frame.interface_id" showname="Interface id: 0 (usbmon1)" size="0" pos="0" show="0">
      <field name="frame.interface_name" showname="Interface name: usbmon1" size="0" pos="0" show="usbmon1"/>
    </field>
    <field name="frame.encap_type" showname="Encapsulation type: USB packets with Linux header and padding (115)" size="0" pos="0" show="115"/>
    <field name="frame.time" showname="Arrival Time: Jul 31, 2023 16:24:23.230466000 EDT" size="0" pos="0" show="Jul 31, 2023 16:24:23.230466000 EDT"/>
    <field name="frame.offset_shift" showname="Time shift for this packet: 0.000000000 seconds" size="0" pos="0" show="0.000000000"/>
    <field name="frame.time_epoch" showname="Epoch Time: 1690835063.230466000 seconds" size="0" pos="0" show="1690835063.230466000"/>
    <field name="frame.time_delta" showname="Time delta from previous captured frame: 0.000159000 seconds" size="0" pos="0" show="0.000159000"/>
    <field name="frame.time_delta_displayed" showname="Time delta from previous displayed frame: 0.000159000 seconds" size="0" pos="0" show="0.000159000"/>
    <field name="frame.time_relative" showname="Time since reference or first frame: 8.096926000 seconds" size="0" pos="0" show="8.096926000"/>
    <field name="frame.number" showname="Frame Number: 496" size="0" pos="0" show="496"/>
    <field name="frame.len" showname="Frame Length: 64 bytes (512 bits)" size="0" pos="0" show="64"/>
    <field name="frame.cap_len" showname="Capture Length: 64 bytes (512 bits)" size="0" pos="0" show="64"/>
    <field name="frame.marked" showname="Frame is marked: False" size="0" pos="0" show="0"/>
    <field name="frame.ignored" showname="Frame is ignored: False" size="0" pos="0" show="0"/>
    <field name="frame.protocols" showname="Protocols in frame: usb" size="0" pos="0" show="usb"/>
  </proto>
  <proto name="usb" showname="USB URB" size="64" pos="0">
    <field name="usb.src" showname="Source: host" size="0" pos="0" show="host"/>
    <field name="usb.addr" showname="Source or Destination: host" hide="yes" size="0" pos="0" show="host"/>
    <field name="usb.dst" showname="Destination: 1.14.3" size="0" pos="0" show="1.14.3"/>
    <field name="usb.addr" showname="Source or Destination: 1.14.3" hide="yes" size="0" pos="0" show="1.14.3"/>
    <field name="usb.urb_id" showname="URB id: 0xffffa0f83c16e3c0" size="8" pos="0" show="0xffffa0f83c16e3c0" value="c0e3163cf8a0ffff"/>
    <field name="usb.urb_type" showname="URB type: URB_SUBMIT (&#x27;S&#x27;)" size="1" pos="8" show="&#x27;S&#x27;" value="53"/>
    <field name="usb.transfer_type" showname="URB transfer type: URB_BULK (0x03)" size="1" pos="9" show="0x03" value="03"/>
    <field name="usb.endpoint_address" showname="Endpoint: 0x83, Direction: IN" size="1" pos="10" show="0x83" value="83">
      <field name="usb.endpoint_address.direction" showname="1... .... = Direction: IN (1)" size="1" pos="10" show="1" value="1" unmaskedvalue="83"/>
      <field name="usb.endpoint_address.number" showname=".... 0011 = Endpoint number: 3" size="1" pos="10" show="3" value="3" unmaskedvalue="83"/>
    </field>
    <field name="usb.device_address" showname="Device: 14" size="1" pos="11" show="14" value="0e"/>
    <field name="usb.bus_id" showname="URB bus id: 1" size="2" pos="12" show="1" value="0100"/>
    <field name="usb.setup_flag" showname="Device setup request: not relevant (&#x27;-&#x27;)" size="1" pos="14" show="&#x27;-&#x27;" value="2d"/>
    <field name="usb.data_flag" showname="Data: not present (&#x27;&lt;&#x27;)" size="1" pos="15" show="&#x27;&lt;&#x27;" value="3c"/>
    <field name="usb.urb_ts_sec" showname="URB sec: 1690835063" size="8" pos="16" show="1690835063" value="7718c86400000000"/>
    <field name="usb.urb_ts_usec" showname="URB usec: 230466" size="4" pos="24" show="230466" value="42840300"/>
    <field name="usb.urb_status" showname="URB status: Operation now in progress (-EINPROGRESS) (-115)" size="4" pos="28" show="-115" value="8dffffff"/>
    <field name="usb.urb_len" showname="URB length [bytes]: 64" size="4" pos="32" show="64" value="40000000"/>
    <field name="usb.data_len" showname="Data length [bytes]: 0" size="4" pos="36" show="0" value="00000000"/>
    <field name="usb.response_in" showname="Response in: 497" size="0" pos="0" show="497"/>
    <field name="usb.bInterfaceClass" showname="bInterfaceClass: Unknown (0xffff)" size="0" pos="0" show="0xff"/>
    <field name="usb.unused_setup_header" showname="Unused Setup Header" size="8" pos="40" show="" value=""/>
    <field name="usb.interval" showname="Interval: 0" size="4" pos="48" show="0" value="00000000"/>
    <field name="usb.start_frame" showname="Start frame: 0" size="4" pos="52" show="0" value="00000000"/>
    <field name="usb.copy_of_transfer_flags" showname="Copy of Transfer Flags: 0x00000200, Dir IN" size="4" pos="56" show="0x00000200" value="00020000">
      <field name="usb.transfer_flags.short_not_ok" showname=".... .... .... .... .... .... .... ...0 = Short not OK: False" size="4" pos="56" show="0" value="0" unmaskedvalue="00020000"/>
      <field name="usb.transfer_flags.iso_asap" showname=".... .... .... .... .... .... .... ..0. = ISO ASAP: False" size="4" pos="56" show="0" value="0" unmaskedvalue="00020000"/>
      <field name="usb.transfer_flags.no_transfer_dma_map" showname=".... .... .... .... .... .... .... .0.. = No transfer DMA map: False" size="4" pos="56" show="0" value="0" unmaskedvalue="00020000"/>
      <field name="usb.transfer_flags.no_fsbr" showname=".... .... .... .... .... .... ..0. .... = No FSBR: False" size="4" pos="56" show="0" value="0" unmaskedvalue="00020000"/>
      <field name="usb.transfer_flags.zero_packet" showname=".... .... .... .... .... .... .0.. .... = Zero Packet: False" size="4" pos="56" show="0" value="0" unmaskedvalue="00020000"/>
      <field name="usb.transfer_flags.no_interrupt" showname=".... .... .... .... .... .... 0... .... = No Interrupt: False" size="4" pos="56" show="0" value="0" unmaskedvalue="00020000"/>
      <field name="usb.transfer_flags.free_buffer" showname=".... .... .... .... .... ...0 .... .... = Free Buffer: False" size="4" pos="56" show="0" value="0" unmaskedvalue="00020000"/>
      <field name="usb.transfer_flags.dir_in" showname=".... .... .... .... .... ..1. .... .... = Dir IN: True" size="4" pos="56" show="1" value="1" unmaskedvalue="00020000"/>
      <field name="usb.transfer_flags.dma_map_single" showname=".... .... .... ...0 .... .... .... .... = DMA Map Single: False" size="4" pos="56" show="0" value="0" unmaskedvalue="00020000"/>
      <field name="usb.transfer_flags.dma_map_page" showname=".... .... .... ..0. .... .... .... .... = DMA Map Page: False" size="4" pos="56" show="0" value="0" unmaskedvalue="00020000"/>
      <field name="usb.transfer_flags.dma_map_sg" showname=".... .... .... .0.. .... .... .... .... = DMA Map SG: False" size="4" pos="56" show="0" value="0" unmaskedvalue="00020000"/>
      <field name="usb.transfer_flags.map_local" showname=".... .... .... 0... .... .... .... .... = Map Local: False" size="4" pos="56" show="0" value="0" unmaskedvalue="00020000"/>
      <field name="usb.transfer_flags.setup_map_single" showname=".... .... ...0 .... .... .... .... .... = Setup Map Single: False" size="4" pos="56" show="0" value="0" unmaskedvalue="00020000"/>
      <field name="usb.transfer_flags.setup_map_local" showname=".... .... ..0. .... .... .... .... .... = Setup Map Local: False" size="4" pos="56" show="0" value="0" unmaskedvalue="00020000"/>
      <field name="usb.transfer_flags.dma_sg_combined" showname=".... .... .0.. .... .... .... .... .... = DMA S-G Combined: False" size="4" pos="56" show="0" value="0" unmaskedvalue="00020000"/>
      <field name="usb.transfer_flags.aligned_temp_buffer" showname=".... .... 0... .... .... .... .... .... = Aligned Temp Buffer: False" size="4" pos="56" show="0" value="0" unmaskedvalue="00020000"/>
    </field>
    <field name="usb.iso.numdesc" showname="Number of ISO descriptors: 0" size="4" pos="60" show="0" value="00000000"/>
  </proto>
</packet>

<packet>
  <proto name="geninfo" pos="0" showname="General information" size="65">
    <field name="num" pos="0" show="497" showname="Number" value="1f1" size="65"/>
    <field name="len" pos="0" show="65" showname="Frame Length" value="41" size="65"/>
    <field name="caplen" pos="0" show="65" showname="Captured Length" value="41" size="65"/>
    <field name="timestamp" pos="0" show="Jul 31, 2023 16:24:23.230533000 EDT" showname="Captured Time" value="1690835063.230533000" size="65"/>
  </proto>
  <proto name="frame" showname="Frame 497: 65 bytes on wire (520 bits), 65 bytes captured (520 bits) on interface usbmon1, id 0" size="65" pos="0">
    <field name="frame.section_number" showname="Section number: 1" size="0" pos="0" show="1"/>
    <field name="frame.interface_id" showname="Interface id: 0 (usbmon1)" size="0" pos="0" show="0">
      <field name="frame.interface_name" showname="Interface name: usbmon1" size="0" pos="0" show="usbmon1"/>
    </field>
    <field name="frame.encap_type" showname="Encapsulation type: USB packets with Linux header and padding (115)" size="0" pos="0" show="115"/>
    <field name="frame.time" showname="Arrival Time: Jul 31, 2023 16:24:23.230533000 EDT" size="0" pos="0" show="Jul 31, 2023 16:24:23.230533000 EDT"/>
    <field name="frame.offset_shift" showname="Time shift for this packet: 0.000000000 seconds" size="0" pos="0" show="0.000000000"/>
    <field name="frame.time_epoch" showname="Epoch Time: 1690835063.230533000 seconds" size="0" pos="0" show="1690835063.230533000"/>
    <field name="frame.time_delta" showname="Time delta from previous captured frame: 0.000067000 seconds" size="0" pos="0" show="0.000067000"/>
    <field name="frame.time_delta_displayed" showname="Time delta from previous displayed frame: 0.000067000 seconds" size="0" pos="0" show="0.000067000"/>
    <field name="frame.time_relative" showname="Time since reference or first frame: 8.096993000 seconds" size="0" pos="0" show="8.096993000"/>
    <field name="frame.number" showname="Frame Number: 497" size="0" pos="0" show="497"/>
    <field name="frame.len" showname="Frame Length: 65 bytes (520 bits)" size="0" pos="0" show="65"/>
    <field name="frame.cap_len" showname="Capture Length: 65 bytes (520 bits)" size="0" pos="0" show="65"/>
    <field name="frame.marked" showname="Frame is marked: False" size="0" pos="0" show="0"/>
    <field name="frame.ignored" showname="Frame is ignored: False" size="0" pos="0" show="0"/>
    <field name="frame.protocols" showname="Protocols in frame: usb" size="0" pos="0" show="usb"/>
  </proto>
  <proto name="usb" showname="USB URB" size="64" pos="0">
    <field name="usb.src" showname="Source: 1.14.3" size="0" pos="0" show="1.14.3"/>
    <field name="usb.addr" showname="Source or Destination: 1.14.3" hide="yes" size="0" pos="0" show="1.14.3"/>
    <field name="usb.dst" showname="Destination: host" size="0" pos="0" show="host"/>
    <field name="usb.addr" showname="Source or Destination: host" hide="yes" size="0" pos="0" show="host"/>
    <field name="usb.urb_id" showname="URB id: 0xffffa0f83c16e3c0" size="8" pos="0" show="0xffffa0f83c16e3c0" value="c0e3163cf8a0ffff"/>
    <field name="usb.urb_type" showname="URB type: URB_COMPLETE (&#x27;C&#x27;)" size="1" pos="8" show="&#x27;C&#x27;" value="43"/>
    <field name="usb.transfer_type" showname="URB transfer type: URB_BULK (0x03)" size="1" pos="9" show="0x03" value="03"/>
    <field name="usb.endpoint_address" showname="Endpoint: 0x83, Direction: IN" size="1" pos="10" show="0x83" value="83">
      <field name="usb.endpoint_address.direction" showname="1... .... = Direction: IN (1)" size="1" pos="10" show="1" value="1" unmaskedvalue="83"/>
      <field name="usb.endpoint_address.number" showname=".... 0011 = Endpoint number: 3" size="1" pos="10" show="3" value="3" unmaskedvalue="83"/>
    </field>
    <field name="usb.device_address" showname="Device: 14" size="1" pos="11" show="14" value="0e"/>
    <field name="usb.bus_id" showname="URB bus id: 1" size="2" pos="12" show="1" value="0100"/>
    <field name="usb.setup_flag" showname="Device setup request: not relevant (&#x27;-&#x27;)" size="1" pos="14" show="&#x27;-&#x27;" value="2d"/>
    <field name="usb.data_flag" showname="Data: present (&#x27;\0&#x27;)" size="1" pos="15" show="&#x27;\0&#x27;" value="00"/>
    <field name="usb.urb_ts_sec" showname="URB sec: 1690835063" size="8" pos="16" show="1690835063" value="7718c86400000000"/>
    <field name="usb.urb_ts_usec" showname="URB usec: 230533" size="4" pos="24" show="230533" value="85840300"/>
    <field name="usb.urb_status" showname="URB status: Success (0)" size="4" pos="28" show="0" value="00000000"/>
    <field name="usb.urb_len" showname="URB length [bytes]: 1" size="4" pos="32" show="1" value="01000000"/>
    <field name="usb.data_len" showname="Data length [bytes]: 1" size="4" pos="36" show="1" value="01000000"/>
    <field name="usb.request_in" showname="Request in: 496" size="0" pos="0" show="496"/>
    <field name="usb.time" showname="Time from request: 0.000067000 seconds" size="0" pos="0" show="0.000067000"/>
    <field name="usb.bInterfaceClass" showname="bInterfaceClass: Unknown (0xffff)" size="0" pos="0" show="0xff"/>
    <field name="usb.unused_setup_header" showname="Unused Setup Header" size="8" pos="40" show="" value=""/>
    <field name="usb.interval" showname="Interval: 0" size="4" pos="48" show="0" value="00000000"/>
    <field name="usb.start_frame" showname="Start frame: 0" size="4" pos="52" show="0" value="00000000"/>
    <field name="usb.copy_of_transfer_flags" showname="Copy of Transfer Flags: 0x00000200, Dir IN" size="4" pos="56" show="0x00000200" value="00020000">
      <field name="usb.transfer_flags.short_not_ok" showname=".... .... .... .... .... .... .... ...0 = Short not OK: False" size="4" pos="56" show="0" value="0" unmaskedvalue="00020000"/>
      <field name="usb.transfer_flags.iso_asap" showname=".... .... .... .... .... .... .... ..0. = ISO ASAP: False" size="4" pos="56" show="0" value="0" unmaskedvalue="00020000"/>
      <field name="usb.transfer_flags.no_transfer_dma_map" showname=".... .... .... .... .... .... .... .0.. = No transfer DMA map: False" size="4" pos="56" show="0" value="0" unmaskedvalue="00020000"/>
      <field name="usb.transfer_flags.no_fsbr" showname=".... .... .... .... .... .... ..0. .... = No FSBR: False" size="4" pos="56" show="0" value="0" unmaskedvalue="00020000"/>
      <field name="usb.transfer_flags.zero_packet" showname=".... .... .... .... .... .... .0.. .... = Zero Packet: False" size="4" pos="56" show="0" value="0" unmaskedvalue="00020000"/>
      <field name="usb.transfer_flags.no_interrupt" showname=".... .... .... .... .... .... 0... .... = No Interrupt: False" size="4" pos="56" show="0" value="0" unmaskedvalue="00020000"/>
      <field name="usb.transfer_flags.free_buffer" showname=".... .... .... .... .... ...0 .... .... = Free Buffer: False" size="4" pos="56" show="0" value="0" unmaskedvalue="00020000"/>
      <field name="usb.transfer_flags.dir_in" showname=".... .... .... .... .... ..1. .... .... = Dir IN: True" size="4" pos="56" show="1" value="1" unmaskedvalue="00020000"/>
      <field name="usb.transfer_flags.dma_map_single" showname=".... .... .... ...0 .... .... .... .... = DMA Map Single: False" size="4" pos="56" show="0" value="0" unmaskedvalue="00020000"/>
      <field name="usb.transfer_flags.dma_map_page" showname=".... .... .... ..0. .... .... .... .... = DMA Map Page: False" size="4" pos="56" show="0" value="0" unmaskedvalue="00020000"/>
      <field name="usb.transfer_flags.dma_map_sg" showname=".... .... .... .0.. .... .... .... .... = DMA Map SG: False" size="4" pos="56" show="0" value="0" unmaskedvalue="00020000"/>
      <field name="usb.transfer_flags.map_local" showname=".... .... .... 0... .... .... .... .... = Map Local: False" size="4" pos="56" show="0" value="0" unmaskedvalue="00020000"/>
      <field name="usb.transfer_flags.setup_map_single" showname=".... .... ...0 .... .... .... .... .... = Setup Map Single: False" size="4" pos="56" show="0" value="0" unmaskedvalue="00020000"/>
      <field name="usb.transfer_flags.setup_map_local" showname=".... .... ..0. .... .... .... .... .... = Setup Map Local: False" size="4" pos="56" show="0" value="0" unmaskedvalue="00020000"/>
      <field name="usb.transfer_flags.dma_sg_combined" showname=".... .... .0.. .... .... .... .... .... = DMA S-G Combined: False" size="4" pos="56" show="0" value="0" unmaskedvalue="00020000"/>
      <field name="usb.transfer_flags.aligned_temp_buffer" showname=".... .... 0... .... .... .... .... .... = Aligned Temp Buffer: False" size="4" pos="56" show="0" value="0" unmaskedvalue="00020000"/>
    </field>
    <field name="usb.iso.numdesc" showname="Number of ISO descriptors: 0" size="4" pos="60" show="0" value="00000000"/>
  </proto>
  <proto name="fake-field-wrapper">
    <field name="usb.capdata" showname="Leftover Capture Data: 0d" size="1" pos="64" show="0d" value="0d"/>
  </proto>
</packet>

<packet>
  <proto name="geninfo" pos="0" showname="General information" size="64">
    <field name="num" pos="0" show="498" showname="Number" value="1f2" size="64"/>
    <field name="len" pos="0" show="64" showname="Frame Length" value="40" size="64"/>
    <field name="caplen" pos="0" show="64" showname="Captured Length" value="40" size="64"/>
    <field name="timestamp" pos="0" show="Jul 31, 2023 16:24:23.230712000 EDT" showname="Captured Time" value="1690835063.230712000" size="64"/>
  </proto>
  <proto name="frame" showname="Frame 498: 64 bytes on wire (512 bits), 64 bytes captured (512 bits) on interface usbmon1, id 0" size="64" pos="0">
    <field name="frame.section_number" showname="Section number: 1" size="0" pos="0" show="1"/>
    <field name="frame.interface_id" showname="Interface id: 0 (usbmon1)" size="0" pos="0" show="0">
      <field name="frame.interface_name" showname="Interface name: usbmon1" size="0" pos="0" show="usbmon1"/>
    </field>
    <field name="frame.encap_type" showname="Encapsulation type: USB packets with Linux header and padding (115)" size="0" pos="0" show="115"/>
    <field name="frame.time" showname="Arrival Time: Jul 31, 2023 16:24:23.230712000 EDT" size="0" pos="0" show="Jul 31, 2023 16:24:23.230712000 EDT"/>
    <field name="frame.offset_shift" showname="Time shift for this packet: 0.000000000 seconds" size="0" pos="0" show="0.000000000"/>
    <field name="frame.time_epoch" showname="Epoch Time: 1690835063.230712000 seconds" size="0" pos="0" show="1690835063.230712000"/>
    <field name="frame.time_delta" showname="Time delta from previous captured frame: 0.000179000 seconds" size="0" pos="0" show="0.000179000"/>
    <field name="frame.time_delta_displayed" showname="Time delta from previous displayed frame: 0.000179000 seconds" size="0" pos="0" show="0.000179000"/>
    <field name="frame.time_relative" showname="Time since reference or first frame: 8.097172000 seconds" size="0" pos="0" show="8.097172000"/>
    <field name="frame.number" showname="Frame Number: 498" size="0" pos="0" show="498"/>
    <field name="frame.len" showname="Frame Length: 64 bytes (512 bits)" size="0" pos="0" show="64"/>
    <field name="frame.cap_len" showname="Capture Length: 64 bytes (512 bits)" size="0" pos="0" show="64"/>
    <field name="frame.marked" showname="Frame is marked: False" size="0" pos="0" show="0"/>
    <field name="frame.ignored" showname="Frame is ignored: False" size="0" pos="0" show="0"/>
    <field name="frame.protocols" showname="Protocols in frame: usb" size="0" pos="0" show="usb"/>
  </proto>
  <proto name="usb" showname="USB URB" size="64" pos="0">
    <field name="usb.src" showname="Source: host" size="0" pos="0" show="host"/>
    <field name="usb.addr" showname="Source or Destination: host" hide="yes" size="0" pos="0" show="host"/>
    <field name="usb.dst" showname="Destination: 1.14.3" size="0" pos="0" show="1.14.3"/>
    <field name="usb.addr" showname="Source or Destination: 1.14.3" hide="yes" size="0" pos="0" show="1.14.3"/>
    <field name="usb.urb_id" showname="URB id: 0xffffa0f83c16ec00" size="8" pos="0" show="0xffffa0f83c16ec00" value="00ec163cf8a0ffff"/>
    <field name="usb.urb_type" showname="URB type: URB_SUBMIT (&#x27;S&#x27;)" size="1" pos="8" show="&#x27;S&#x27;" value="53"/>
    <field name="usb.transfer_type" showname="URB transfer type: URB_BULK (0x03)" size="1" pos="9" show="0x03" value="03"/>
    <field name="usb.endpoint_address" showname="Endpoint: 0x83, Direction: IN" size="1" pos="10" show="0x83" value="83">
      <field name="usb.endpoint_address.direction" showname="1... .... = Direction: IN (1)" size="1" pos="10" show="1" value="1" unmaskedvalue="83"/>
      <field name="usb.endpoint_address.number" showname=".... 0011 = Endpoint number: 3" size="1" pos="10" show="3" value="3" unmaskedvalue="83"/>
    </field>
    <field name="usb.device_address" showname="Device: 14" size="1" pos="11" show="14" value="0e"/>
    <field name="usb.bus_id" showname="URB bus id: 1" size="2" pos="12" show="1" value="0100"/>
    <field name="usb.setup_flag" showname="Device setup request: not relevant (&#x27;-&#x27;)" size="1" pos="14" show="&#x27;-&#x27;" value="2d"/>
    <field name="usb.data_flag" showname="Data: not present (&#x27;&lt;&#x27;)" size="1" pos="15" show="&#x27;&lt;&#x27;" value="3c"/>
    <field name="usb.urb_ts_sec" showname="URB sec: 1690835063" size="8" pos="16" show="1690835063" value="7718c86400000000"/>
    <field name="usb.urb_ts_usec" showname="URB usec: 230712" size="4" pos="24" show="230712" value="38850300"/>
    <field name="usb.urb_status" showname="URB status: Operation now in progress (-EINPROGRESS) (-115)" size="4" pos="28" show="-115" value="8dffffff"/>
    <field name="usb.urb_len" showname="URB length [bytes]: 64" size="4" pos="32" show="64" value="40000000"/>
    <field name="usb.data_len" showname="Data length [bytes]: 0" size="4" pos="36" show="0" value="00000000"/>
    <field name="usb.response_in" showname="Response in: 499" size="0" pos="0" show="499"/>
    <field name="usb.bInterfaceClass" showname="bInterfaceClass: Unknown (0xffff)" size="0" pos="0" show="0xff"/>
    <field name="usb.unused_setup_header" showname="Unused Setup Header" size="8" pos="40" show="" value=""/>
    <field name="usb.interval" showname="Interval: 0" size="4" pos="48" show="0" value="00000000"/>
    <field name="usb.start_frame" showname="Start frame: 0" size="4" pos="52" show="0" value="00000000"/>
    <field name="usb.copy_of_transfer_flags" showname="Copy of Transfer Flags: 0x00000200, Dir IN" size="4" pos="56" show="0x00000200" value="00020000">
      <field name="usb.transfer_flags.short_not_ok" showname=".... .... .... .... .... .... .... ...0 = Short not OK: False" size="4" pos="56" show="0" value="0" unmaskedvalue="00020000"/>
      <field name="usb.transfer_flags.iso_asap" showname=".... .... .... .... .... .... .... ..0. = ISO ASAP: False" size="4" pos="56" show="0" value="0" unmaskedvalue="00020000"/>
      <field name="usb.transfer_flags.no_transfer_dma_map" showname=".... .... .... .... .... .... .... .0.. = No transfer DMA map: False" size="4" pos="56" show="0" value="0" unmaskedvalue="00020000"/>
      <field name="usb.transfer_flags.no_fsbr" showname=".... .... .... .... .... .... ..0. .... = No FSBR: False" size="4" pos="56" show="0" value="0" unmaskedvalue="00020000"/>
      <field name="usb.transfer_flags.zero_packet" showname=".... .... .... .... .... .... .0.. .... = Zero Packet: False" size="4" pos="56" show="0" value="0" unmaskedvalue="00020000"/>
      <field name="usb.transfer_flags.no_interrupt" showname=".... .... .... .... .... .... 0... .... = No Interrupt: False" size="4" pos="56" show="0" value="0" unmaskedvalue="00020000"/>
      <field name="usb.transfer_flags.free_buffer" showname=".... .... .... .... .... ...0 .... .... = Free Buffer: False" size="4" pos="56" show="0" value="0" unmaskedvalue="00020000"/>
      <field name="usb.transfer_flags.dir_in" showname=".... .... .... .... .... ..1. .... .... = Dir IN: True" size="4" pos="56" show="1" value="1" unmaskedvalue="00020000"/>
      <field name="usb.transfer_flags.dma_map_single" showname=".... .... .... ...0 .... .... .... .... = DMA Map Single: False" size="4" pos="56" show="0" value="0" unmaskedvalue="00020000"/>
      <field name="usb.transfer_flags.dma_map_page" showname=".... .... .... ..0. .... .... .... .... = DMA Map Page: False" size="4" pos="56" show="0" value="0" unmaskedvalue="00020000"/>
      <field name="usb.transfer_flags.dma_map_sg" showname=".... .... .... .0.. .... .... .... .... = DMA Map SG: False" size="4" pos="56" show="0" value="0" unmaskedvalue="00020000"/>
      <field name="usb.transfer_flags.map_local" showname=".... .... .... 0... .... .... .... .... = Map Local: False" size="4" pos="56" show="0" value="0" unmaskedvalue="00020000"/>
      <field name="usb.transfer_flags.setup_map_single" showname=".... .... ...0 .... .... .... .... .... = Setup Map Single: False" size="4" pos="56" show="0" value="0" unmaskedvalue="00020000"/>
      <field name="usb.transfer_flags.setup_map_local" showname=".... .... ..0. .... .... .... .... .... = Setup Map Local: False" size="4" pos="56" show="0" value="0" unmaskedvalue="00020000"/>
      <field name="usb.transfer_flags.dma_sg_combined" showname=".... .... .0.. .... .... .... .... .... = DMA S-G Combined: False" size="4" pos="56" show="0" value="0" unmaskedvalue="00020000"/>
      <field name="usb.transfer_flags.aligned_temp_buffer" showname=".... .... 0... .... .... .... .... .... = Aligned Temp Buffer: False" size="4" pos="56" show="0" value="0" unmaskedvalue="00020000"/>
    </field>
    <field name="usb.iso.numdesc" showname="Number of ISO descriptors: 0" size="4" pos="60" show="0" value="00000000"/>
  </proto>
</packet>

<packet>
  <proto name="geninfo" pos="0" showname="General information" size="65">
    <field name="num" pos="0" show="499" showname="Number" value="1f3" size="65"/>
    <field name="len" pos="0" show="65" showname="Frame Length" value="41" size="65"/>
    <field name="caplen" pos="0" show="65" showname="Captured Length" value="41" size="65"/>
    <field name="timestamp" pos="0" show="Jul 31, 2023 16:24:23.230806000 EDT" showname="Captured Time" value="1690835063.230806000" size="65"/>
  </proto>
  <proto name="frame" showname="Frame 499: 65 bytes on wire (520 bits), 65 bytes captured (520 bits) on interface usbmon1, id 0" size="65" pos="0">
    <field name="frame.section_number" showname="Section number: 1" size="0" pos="0" show="1"/>
    <field name="frame.interface_id" showname="Interface id: 0 (usbmon1)" size="0" pos="0" show="0">
      <field name="frame.interface_name" showname="Interface name: usbmon1" size="0" pos="0" show="usbmon1"/>
    </field>
    <field name="frame.encap_type" showname="Encapsulation type: USB packets with Linux header and padding (115)" size="0" pos="0" show="115"/>
    <field name="frame.time" showname="Arrival Time: Jul 31, 2023 16:24:23.230806000 EDT" size="0" pos="0" show="Jul 31, 2023 16:24:23.230806000 EDT"/>
    <field name="frame.offset_shift" showname="Time shift for this packet: 0.000000000 seconds" size="0" pos="0" show="0.000000000"/>
    <field name="frame.time_epoch" showname="Epoch Time: 1690835063.230806000 seconds" size="0" pos="0" show="1690835063.230806000"/>
    <field name="frame.time_delta" showname="Time delta from previous captured frame: 0.000094000 seconds" size="0" pos="0" show="0.000094000"/>
    <field name="frame.time_delta_displayed" showname="Time delta from previous displayed frame: 0.000094000 seconds" size="0" pos="0" show="0.000094000"/>
    <field name="frame.time_relative" showname="Time since reference or first frame: 8.097266000 seconds" size="0" pos="0" show="8.097266000"/>
    <field name="frame.number" showname="Frame Number: 499" size="0" pos="0" show="499"/>
    <field name="frame.len" showname="Frame Length: 65 bytes (520 bits)" size="0" pos="0" show="65"/>
    <field name="frame.cap_len" showname="Capture Length: 65 bytes (520 bits)" size="0" pos="0" show="65"/>
    <field name="frame.marked" showname="Frame is marked: False" size="0" pos="0" show="0"/>
    <field name="frame.ignored" showname="Frame is ignored: False" size="0" pos="0" show="0"/>
    <field name="frame.protocols" showname="Protocols in frame: usb" size="0" pos="0" show="usb"/>
  </proto>
  <proto name="usb" showname="USB URB" size="64" pos="0">
    <field name="usb.src" showname="Source: 1.14.3" size="0" pos="0" show="1.14.3"/>
    <field name="usb.addr" showname="Source or Destination: 1.14.3" hide="yes" size="0" pos="0" show="1.14.3"/>
    <field name="usb.dst" showname="Destination: host" size="0" pos="0" show="host"/>
    <field name="usb.addr" showname="Source or Destination: host" hide="yes" size="0" pos="0" show="host"/>
    <field name="usb.urb_id" showname="URB id: 0xffffa0f83c16ec00" size="8" pos="0" show="0xffffa0f83c16ec00" value="00ec163cf8a0ffff"/>
    <field name="usb.urb_type" showname="URB type: URB_COMPLETE (&#x27;C&#x27;)" size="1" pos="8" show="&#x27;C&#x27;" value="43"/>
    <field name="usb.transfer_type" showname="URB transfer type: URB_BULK (0x03)" size="1" pos="9" show="0x03" value="03"/>
    <field name="usb.endpoint_address" showname="Endpoint: 0x83, Direction: IN" size="1" pos="10" show="0x83" value="83">
      <field name="usb.endpoint_address.direction" showname="1... .... = Direction: IN (1)" size="1" pos="10" show="1" value="1" unmaskedvalue="83"/>
      <field name="usb.endpoint_address.number" showname=".... 0011 = Endpoint number: 3" size="1" pos="10" show="3" value="3" unmaskedvalue="83"/>
    </field>
    <field name="usb.device_address" showname="Device: 14" size="1" pos="11" show="14" value="0e"/>
    <field name="usb.bus_id" showname="URB bus id: 1" size="2" pos="12" show="1" value="0100"/>
    <field name="usb.setup_flag" showname="Device setup request: not relevant (&#x27;-&#x27;)" size="1" pos="14" show="&#x27;-&#x27;" value="2d"/>
    <field name="usb.data_flag" showname="Data: present (&#x27;\0&#x27;)" size="1" pos="15" show="&#x27;\0&#x27;" value="00"/>
    <field name="usb.urb_ts_sec" showname="URB sec: 1690835063" size="8" pos="16" show="1690835063" value="7718c86400000000"/>
    <field name="usb.urb_ts_usec" showname="URB usec: 230806" size="4" pos="24" show="230806" value="96850300"/>
    <field name="usb.urb_status" showname="URB status: Success (0)" size="4" pos="28" show="0" value="00000000"/>
    <field name="usb.urb_len" showname="URB length [bytes]: 1" size="4" pos="32" show="1" value="01000000"/>
    <field name="usb.data_len" showname="Data length [bytes]: 1" size="4" pos="36" show="1" value="01000000"/>
    <field name="usb.request_in" showname="Request in: 498" size="0" pos="0" show="498"/>
    <field name="usb.time" showname="Time from request: 0.000094000 seconds" size="0" pos="0" show="0.000094000"/>
    <field name="usb.bInterfaceClass" showname="bInterfaceClass: Unknown (0xffff)" size="0" pos="0" show="0xff"/>
    <field name="usb.unused_setup_header" showname="Unused Setup Header" size="8" pos="40" show="" value=""/>
    <field name="usb.interval" showname="Interval: 0" size="4" pos="48" show="0" value="00000000"/>
    <field name="usb.start_frame" showname="Start frame: 0" size="4" pos="52" show="0" value="00000000"/>
    <field name="usb.copy_of_transfer_flags" showname="Copy of Transfer Flags: 0x00000200, Dir IN" size="4" pos="56" show="0x00000200" value="00020000">
      <field name="usb.transfer_flags.short_not_ok" showname=".... .... .... .... .... .... .... ...0 = Short not OK: False" size="4" pos="56" show="0" value="0" unmaskedvalue="00020000"/>
      <field name="usb.transfer_flags.iso_asap" showname=".... .... .... .... .... .... .... ..0. = ISO ASAP: False" size="4" pos="56" show="0" value="0" unmaskedvalue="00020000"/>
      <field name="usb.transfer_flags.no_transfer_dma_map" showname=".... .... .... .... .... .... .... .0.. = No transfer DMA map: False" size="4" pos="56" show="0" value="0" unmaskedvalue="00020000"/>
      <field name="usb.transfer_flags.no_fsbr" showname=".... .... .... .... .... .... ..0. .... = No FSBR: False" size="4" pos="56" show="0" value="0" unmaskedvalue="00020000"/>
      <field name="usb.transfer_flags.zero_packet" showname=".... .... .... .... .... .... .0.. .... = Zero Packet: False" size="4" pos="56" show="0" value="0" unmaskedvalue="00020000"/>
      <field name="usb.transfer_flags.no_interrupt" showname=".... .... .... .... .... .... 0... .... = No Interrupt: False" size="4" pos="56" show="0" value="0" unmaskedvalue="00020000"/>
      <field name="usb.transfer_flags.free_buffer" showname=".... .... .... .... .... ...0 .... .... = Free Buffer: False" size="4" pos="56" show="0" value="0" unmaskedvalue="00020000"/>
      <field name="usb.transfer_flags.dir_in" showname=".... .... .... .... .... ..1. .... .... = Dir IN: True" size="4" pos="56" show="1" value="1" unmaskedvalue="00020000"/>
      <field name="usb.transfer_flags.dma_map_single" showname=".... .... .... ...0 .... .... .... .... = DMA Map Single: False" size="4" pos="56" show="0" value="0" unmaskedvalue="00020000"/>
      <field name="usb.transfer_flags.dma_map_page" showname=".... .... .... ..0. .... .... .... .... = DMA Map Page: False" size="4" pos="56" show="0" value="0" unmaskedvalue="00020000"/>
      <field name="usb.transfer_flags.dma_map_sg" showname=".... .... .... .0.. .... .... .... .... = DMA Map SG: False" size="4" pos="56" show="0" value="0" unmaskedvalue="00020000"/>
      <field name="usb.transfer_flags.map_local" showname=".... .... .... 0... .... .... .... .... = Map Local: False" size="4" pos="56" show="0" value="0" unmaskedvalue="00020000"/>
      <field name="usb.transfer_flags.setup_map_single" showname=".... .... ...0 .... .... .... .... .... = Setup Map Single: False" size="4" pos="56" show="0" value="0" unmaskedvalue="00020000"/>
      <field name="usb.transfer_flags.setup_map_local" showname=".... .... ..0. .... .... .... .... .... = Setup Map Local: False" size="4" pos="56" show="0" value="0" unmaskedvalue="00020000"/>
      <field name="usb.transfer_flags.dma_sg_combined" showname=".... .... .0.. .... .... .... .... .... = DMA S-G Combined: False" size="4" pos="56" show="0" value="0" unmaskedvalue="00020000"/>
      <field name="usb.transfer_flags.aligned_temp_buffer" showname=".... .... 0... .... .... .... .... .... = Aligned Temp Buffer: False" size="4" pos="56" show="0" value="0" unmaskedvalue="00020000"/>
    </field>
    <field name="usb.iso.numdesc" showname="Number of ISO descriptors: 0" size="4" pos="60" show="0" value="00000000"/>
  </proto>
  <proto name="fake-field-wrapper">
    <field name="usb.capdata" showname="Leftover Capture Data: 58" size="1" pos="64" show="58" value="58"/>
  </proto>
</packet>

<packet>
  <proto name="geninfo" pos="0" showname="General information" size="64">
    <field name="num" pos="0" show="500" showname="Number" value="1f4" size="64"/>
    <field name="len" pos="0" show="64" showname="Frame Length" value="40" size="64"/>
    <field name="caplen" pos="0" show="64" showname="Captured Length" value="40" size="64"/>
    <field name="timestamp" pos="0" show="Jul 31, 2023 16:24:23.231075000 EDT" showname="Captured Time" value="1690835063.231075000" size="64"/>
  </proto>
  <proto name="frame" showname="Frame 500: 64 bytes on wire (512 bits), 64 bytes captured (512 bits) on interface usbmon1, id 0" size="64" pos="0">
    <field name="frame.section_number" showname="Section number: 1" size="0" pos="0" show="1"/>
    <field name="frame.interface_id" showname="Interface id: 0 (usbmon1)" size="0" pos="0" show="0">
      <field name="frame.interface_name" showname="Interface name: usbmon1" size="0" pos="0" show="usbmon1"/>
    </field>
    <field name="frame.encap_type" showname="Encapsulation type: USB packets with Linux header and padding (115)" size="0" pos="0" show="115"/>
    <field name="frame.time" showname="Arrival Time: Jul 31, 2023 16:24:23.231075000 EDT" size="0" pos="0" show="Jul 31, 2023 16:24:23.231075000 EDT"/>
    <field name="frame.offset_shift" showname="Time shift for this packet: 0.000000000 seconds" size="0" pos="0" show="0.000000000"/>
    <field name="frame.time_epoch" showname="Epoch Time: 1690835063.231075000 seconds" size="0" pos="0" show="1690835063.231075000"/>
    <field name="frame.time_delta" showname="Time delta from previous captured frame: 0.000269000 seconds" size="0" pos="0" show="0.000269000"/>
    <field name="frame.time_delta_displayed" showname="Time delta from previous displayed frame: 0.000269000 seconds" size="0" pos="0" show="0.000269000"/>
    <field name="frame.time_relative" showname="Time since reference or first frame: 8.097535000 seconds" size="0" pos="0" show="8.097535000"/>
    <field name="frame.number" showname="Frame Number: 500" size="0" pos="0" show="500"/>
    <field name="frame.len" showname="Frame Length: 64 bytes (512 bits)" size="0" pos="0" show="64"/>
    <field name="frame.cap_len" showname="Capture Length: 64 bytes (512 bits)" size="0" pos="0" show="64"/>
    <field name="frame.marked" showname="Frame is marked: False" size="0" pos="0" show="0"/>
    <field name="frame.ignored" showname="Frame is ignored: False" size="0" pos="0" show="0"/>
    <field name="frame.protocols" showname="Protocols in frame: usb" size="0" pos="0" show="usb"/>
  </proto>
  <proto name="usb" showname="USB URB" size="64" pos="0">
    <field name="usb.src" showname="Source: host" size="0" pos="0" show="host"/>
    <field name="usb.addr" showname="Source or Destination: host" hide="yes" size="0" pos="0" show="host"/>
    <field name="usb.dst" showname="Destination: 1.14.3" size="0" pos="0" show="1.14.3"/>
    <field name="usb.addr" showname="Source or Destination: 1.14.3" hide="yes" size="0" pos="0" show="1.14.3"/>
    <field name="usb.urb_id" showname="URB id: 0xffffa0f810db5800" size="8" pos="0" show="0xffffa0f810db5800" value="0058db10f8a0ffff"/>
    <field name="usb.urb_type" showname="URB type: URB_SUBMIT (&#x27;S&#x27;)" size="1" pos="8" show="&#x27;S&#x27;" value="53"/>
    <field name="usb.transfer_type" showname="URB transfer type: URB_BULK (0x03)" size="1" pos="9" show="0x03" value="03"/>
    <field name="usb.endpoint_address" showname="Endpoint: 0x83, Direction: IN" size="1" pos="10" show="0x83" value="83">
      <field name="usb.endpoint_address.direction" showname="1... .... = Direction: IN (1)" size="1" pos="10" show="1" value="1" unmaskedvalue="83"/>
      <field name="usb.endpoint_address.number" showname=".... 0011 = Endpoint number: 3" size="1" pos="10" show="3" value="3" unmaskedvalue="83"/>
    </field>
    <field name="usb.device_address" showname="Device: 14" size="1" pos="11" show="14" value="0e"/>
    <field name="usb.bus_id" showname="URB bus id: 1" size="2" pos="12" show="1" value="0100"/>
    <field name="usb.setup_flag" showname="Device setup request: not relevant (&#x27;-&#x27;)" size="1" pos="14" show="&#x27;-&#x27;" value="2d"/>
    <field name="usb.data_flag" showname="Data: not present (&#x27;&lt;&#x27;)" size="1" pos="15" show="&#x27;&lt;&#x27;" value="3c"/>
    <field name="usb.urb_ts_sec" showname="URB sec: 1690835063" size="8" pos="16" show="1690835063" value="7718c86400000000"/>
    <field name="usb.urb_ts_usec" showname="URB usec: 231075" size="4" pos="24" show="231075" value="a3860300"/>
    <field name="usb.urb_status" showname="URB status: Operation now in progress (-EINPROGRESS) (-115)" size="4" pos="28" show="-115" value="8dffffff"/>
    <field name="usb.urb_len" showname="URB length [bytes]: 64" size="4" pos="32" show="64" value="40000000"/>
    <field name="usb.data_len" showname="Data length [bytes]: 0" size="4" pos="36" show="0" value="00000000"/>
    <field name="usb.response_in" showname="Response in: 505" size="0" pos="0" show="505"/>
    <field name="usb.bInterfaceClass" showname="bInterfaceClass: Unknown (0xffff)" size="0" pos="0" show="0xff"/>
    <field name="usb.unused_setup_header" showname="Unused Setup Header" size="8" pos="40" show="" value=""/>
    <field name="usb.interval" showname="Interval: 0" size="4" pos="48" show="0" value="00000000"/>
    <field name="usb.start_frame" showname="Start frame: 0" size="4" pos="52" show="0" value="00000000"/>
    <field name="usb.copy_of_transfer_flags" showname="Copy of Transfer Flags: 0x00000200, Dir IN" size="4" pos="56" show="0x00000200" value="00020000">
      <field name="usb.transfer_flags.short_not_ok" showname=".... .... .... .... .... .... .... ...0 = Short not OK: False" size="4" pos="56" show="0" value="0" unmaskedvalue="00020000"/>
      <field name="usb.transfer_flags.iso_asap" showname=".... .... .... .... .... .... .... ..0. = ISO ASAP: False" size="4" pos="56" show="0" value="0" unmaskedvalue="00020000"/>
      <field name="usb.transfer_flags.no_transfer_dma_map" showname=".... .... .... .... .... .... .... .0.. = No transfer DMA map: False" size="4" pos="56" show="0" value="0" unmaskedvalue="00020000"/>
      <field name="usb.transfer_flags.no_fsbr" showname=".... .... .... .... .... .... ..0. .... = No FSBR: False" size="4" pos="56" show="0" value="0" unmaskedvalue="00020000"/>
      <field name="usb.transfer_flags.zero_packet" showname=".... .... .... .... .... .... .0.. .... = Zero Packet: False" size="4" pos="56" show="0" value="0" unmaskedvalue="00020000"/>
      <field name="usb.transfer_flags.no_interrupt" showname=".... .... .... .... .... .... 0... .... = No Interrupt: False" size="4" pos="56" show="0" value="0" unmaskedvalue="00020000"/>
      <field name="usb.transfer_flags.free_buffer" showname=".... .... .... .... .... ...0 .... .... = Free Buffer: False" size="4" pos="56" show="0" value="0" unmaskedvalue="00020000"/>
      <field name="usb.transfer_flags.dir_in" showname=".... .... .... .... .... ..1. .... .... = Dir IN: True" size="4" pos="56" show="1" value="1" unmaskedvalue="00020000"/>
      <field name="usb.transfer_flags.dma_map_single" showname=".... .... .... ...0 .... .... .... .... = DMA Map Single: False" size="4" pos="56" show="0" value="0" unmaskedvalue="00020000"/>
      <field name="usb.transfer_flags.dma_map_page" showname=".... .... .... ..0. .... .... .... .... = DMA Map Page: False" size="4" pos="56" show="0" value="0" unmaskedvalue="00020000"/>
      <field name="usb.transfer_flags.dma_map_sg" showname=".... .... .... .0.. .... .... .... .... = DMA Map SG: False" size="4" pos="56" show="0" value="0" unmaskedvalue="00020000"/>
      <field name="usb.transfer_flags.map_local" showname=".... .... .... 0... .... .... .... .... = Map Local: False" size="4" pos="56" show="0" value="0" unmaskedvalue="00020000"/>
      <field name="usb.transfer_flags.setup_map_single" showname=".... .... ...0 .... .... .... .... .... = Setup Map Single: False" size="4" pos="56" show="0" value="0" unmaskedvalue="00020000"/>
      <field name="usb.transfer_flags.setup_map_local" showname=".... .... ..0. .... .... .... .... .... = Setup Map Local: False" size="4" pos="56" show="0" value="0" unmaskedvalue="00020000"/>
      <field name="usb.transfer_flags.dma_sg_combined" showname=".... .... .0.. .... .... .... .... .... = DMA S-G Combined: False" size="4" pos="56" show="0" value="0" unmaskedvalue="00020000"/>
      <field name="usb.transfer_flags.aligned_temp_buffer" showname=".... .... 0... .... .... .... .... .... = Aligned Temp Buffer: False" size="4" pos="56" show="0" value="0" unmaskedvalue="00020000"/>
    </field>
    <field name="usb.iso.numdesc" showname="Number of ISO descriptors: 0" size="4" pos="60" show="0" value="00000000"/>
  </proto>
</packet>

<packet>
  <proto name="geninfo" pos="0" showname="General information" size="72">
    <field name="num" pos="0" show="503" showname="Number" value="1f7" size="72"/>
    <field name="len" pos="0" show="72" showname="Frame Length" value="48" size="72"/>
    <field name="caplen" pos="0" show="72" showname="Captured Length" value="48" size="72"/>
    <field name="timestamp" pos="0" show="Jul 31, 2023 16:24:23.289926000 EDT" showname="Captured Time" value="1690835063.289926000" size="72"/>
  </proto>
  <proto name="frame" showname="Frame 503: 72 bytes on wire (576 bits), 72 bytes captured (576 bits) on interface usbmon1, id 0" size="72" pos="0">
    <field name="frame.section_number" showname="Section number: 1" size="0" pos="0" show="1"/>
    <field name="frame.interface_id" showname="Interface id: 0 (usbmon1)" size="0" pos="0" show="0">
      <field name="frame.interface_name" showname="Interface name: usbmon1" size="0" pos="0" show="usbmon1"/>
    </field>
    <field name="frame.encap_type" showname="Encapsulation type: USB packets with Linux header and padding (115)" size="0" pos="0" show="115"/>
    <field name="frame.time" showname="Arrival Time: Jul 31, 2023 16:24:23.289926000 EDT" size="0" pos="0" show="Jul 31, 2023 16:24:23.289926000 EDT"/>
    <field name="frame.offset_shift" showname="Time shift for this packet: 0.000000000 seconds" size="0" pos="0" show="0.000000000"/>
    <field name="frame.time_epoch" showname="Epoch Time: 1690835063.289926000 seconds" size="0" pos="0" show="1690835063.289926000"/>
    <field name="frame.time_delta" showname="Time delta from previous captured frame: 0.020272000 seconds" size="0" pos="0" show="0.020272000"/>
    <field name="frame.time_delta_displayed" showname="Time delta from previous displayed frame: 0.058851000 seconds" size="0" pos="0" show="0.058851000"/>
    <field name="frame.time_relative" showname="Time since reference or first frame: 8.156386000 seconds" size="0" pos="0" show="8.156386000"/>
    <field name="frame.number" showname="Frame Number: 503" size="0" pos="0" show="503"/>
    <field name="frame.len" showname="Frame Length: 72 bytes (576 bits)" size="0" pos="0" show="72"/>
    <field name="frame.cap_len" showname="Capture Length: 72 bytes (576 bits)" size="0" pos="0" show="72"/>
    <field name="frame.marked" showname="Frame is marked: False" size="0" pos="0" show="0"/>
    <field name="frame.ignored" showname="Frame is ignored: False" size="0" pos="0" show="0"/>
    <field name="frame.protocols" showname="Protocols in frame: usb" size="0" pos="0" show="usb"/>
  </proto>
  <proto name="usb" showname="USB URB" size="64" pos="0">
    <field name="usb.src" showname="Source: host" size="0" pos="0" show="host"/>
    <field name="usb.addr" showname="Source or Destination: host" hide="yes" size="0" pos="0" show="host"/>
    <field name="usb.dst" showname="Destination: 1.14.2" size="0" pos="0" show="1.14.2"/>
    <field name="usb.addr" showname="Source or Destination: 1.14.2" hide="yes" size="0" pos="0" show="1.14.2"/>
    <field name="usb.urb_id" showname="URB id: 0xffffa0f810db4fc0" size="8" pos="0" show="0xffffa0f810db4fc0" value="c04fdb10f8a0ffff"/>
    <field name="usb.urb_type" showname="URB type: URB_SUBMIT (&#x27;S&#x27;)" size="1" pos="8" show="&#x27;S&#x27;" value="53"/>
    <field name="usb.transfer_type" showname="URB transfer type: URB_BULK (0x03)" size="1" pos="9" show="0x03" value="03"/>
    <field name="usb.endpoint_address" showname="Endpoint: 0x02, Direction: OUT" size="1" pos="10" show="0x02" value="02">
      <field name="usb.endpoint_address.direction" showname="0... .... = Direction: OUT (0)" size="1" pos="10" show="0" value="0" unmaskedvalue="02"/>
      <field name="usb.endpoint_address.number" showname=".... 0010 = Endpoint number: 2" size="1" pos="10" show="2" value="2" unmaskedvalue="02"/>
    </field>
    <field name="usb.device_address" showname="Device: 14" size="1" pos="11" show="14" value="0e"/>
    <field name="usb.bus_id" showname="URB bus id: 1" size="2" pos="12" show="1" value="0100"/>
    <field name="usb.setup_flag" showname="Device setup request: not relevant (&#x27;-&#x27;)" size="1" pos="14" show="&#x27;-&#x27;" value="2d"/>
    <field name="usb.data_flag" showname="Data: present (&#x27;\0&#x27;)" size="1" pos="15" show="&#x27;\0&#x27;" value="00"/>
    <field name="usb.urb_ts_sec" showname="URB sec: 1690835063" size="8" pos="16" show="1690835063" value="7718c86400000000"/>
    <field name="usb.urb_ts_usec" showname="URB usec: 289926" size="4" pos="24" show="289926" value="866c0400"/>
    <field name="usb.urb_status" showname="URB status: Operation now in progress (-EINPROGRESS) (-115)" size="4" pos="28" show="-115" value="8dffffff"/>
    <field name="usb.urb_len" showname="URB length [bytes]: 8" size="4" pos="32" show="8" value="08000000"/>
    <field name="usb.data_len" showname="Data length [bytes]: 8" size="4" pos="36" show="8" value="08000000"/>
    <field name="usb.response_in" showname="Response in: 504" size="0" pos="0" show="504"/>
    <field name="usb.bInterfaceClass" showname="bInterfaceClass: Unknown (0xffff)" size="0" pos="0" show="0xff"/>
    <field name="usb.unused_setup_header" showname="Unused Setup Header" size="8" pos="40" show="" value=""/>
    <field name="usb.interval" showname="Interval: 0" size="4" pos="48" show="0" value="00000000"/>
    <field name="usb.start_frame" showname="Start frame: 0" size="4" pos="52" show="0" value="00000000"/>
    <field name="usb.copy_of_transfer_flags" showname="Copy of Transfer Flags: 0x00000000" size="4" pos="56" show="0x00000000" value="00000000">
      <field name="usb.transfer_flags.short_not_ok" showname=".... .... .... .... .... .... .... ...0 = Short not OK: False" size="4" pos="56" show="0" value="0" unmaskedvalue="00000000"/>
      <field name="usb.transfer_flags.iso_asap" showname=".... .... .... .... .... .... .... ..0. = ISO ASAP: False" size="4" pos="56" show="0" value="0" unmaskedvalue="00000000"/>
      <field name="usb.transfer_flags.no_transfer_dma_map" showname=".... .... .... .... .... .... .... .0.. = No transfer DMA map: False" size="4" pos="56" show="0" value="0" unmaskedvalue="00000000"/>
      <field name="usb.transfer_flags.no_fsbr" showname=".... .... .... .... .... .... ..0. .... = No FSBR: False" size="4" pos="56" show="0" value="0" unmaskedvalue="00000000"/>
      <field name="usb.transfer_flags.zero_packet" showname=".... .... .... .... .... .... .0.. .... = Zero Packet: False" size="4" pos="56" show="0" value="0" unmaskedvalue="00000000"/>
      <field name="usb.transfer_flags.no_interrupt" showname=".... .... .... .... .... .... 0... .... = No Interrupt: False" size="4" pos="56" show="0" value="0" unmaskedvalue="00000000"/>
      <field name="usb.transfer_flags.free_buffer" showname=".... .... .... .... .... ...0 .... .... = Free Buffer: False" size="4" pos="56" show="0" value="0" unmaskedvalue="00000000"/>
      <field name="usb.transfer_flags.dir_in" showname=".... .... .... .... .... ..0. .... .... = Dir IN: False" size="4" pos="56" show="0" value="0" unmaskedvalue="00000000"/>
      <field name="usb.transfer_flags.dma_map_single" showname=".... .... .... ...0 .... .... .... .... = DMA Map Single: False" size="4" pos="56" show="0" value="0" unmaskedvalue="00000000"/>
      <field name="usb.transfer_flags.dma_map_page" showname=".... .... .... ..0. .... .... .... .... = DMA Map Page: False" size="4" pos="56" show="0" value="0" unmaskedvalue="00000000"/>
      <field name="usb.transfer_flags.dma_map_sg" showname=".... .... .... .0.. .... .... .... .... = DMA Map SG: False" size="4" pos="56" show="0" value="0" unmaskedvalue="00000000"/>
      <field name="usb.transfer_flags.map_local" showname=".... .... .... 0... .... .... .... .... = Map Local: False" size="4" pos="56" show="0" value="0" unmaskedvalue="00000000"/>
      <field name="usb.transfer_flags.setup_map_single" showname=".... .... ...0 .... .... .... .... .... = Setup Map Single: False" size="4" pos="56" show="0" value="0" unmaskedvalue="00000000"/>
      <field name="usb.transfer_flags.setup_map_local" showname=".... .... ..0. .... .... .... .... .... = Setup Map Local: False" size="4" pos="56" show="0" value="0" unmaskedvalue="00000000"/>
      <field name="usb.transfer_flags.dma_sg_combined" showname=".... .... .0.. .... .... .... .... .... = DMA S-G Combined: False" size="4" pos="56" show="0" value="0" unmaskedvalue="00000000"/>
      <field name="usb.transfer_flags.aligned_temp_buffer" showname=".... .... 0... .... .... .... .... .... = Aligned Temp Buffer: False" size="4" pos="56" show="0" value="0" unmaskedvalue="00000000"/>
    </field>
    <field name="usb.iso.numdesc" showname="Number of ISO descriptors: 0" size="4" pos="60" show="0" value="00000000"/>
  </proto>
  <proto name="fake-field-wrapper">
    <field name="usb.capdata" showname="Leftover Capture Data: 3f0300040001c115" size="8" pos="64" show="3f:03:00:04:00:01:c1:15" value="3f0300040001c115"/>
  </proto>
</packet>

<packet>
  <proto name="geninfo" pos="0" showname="General information" size="64">
    <field name="num" pos="0" show="504" showname="Number" value="1f8" size="64"/>
    <field name="len" pos="0" show="64" showname="Frame Length" value="40" size="64"/>
    <field name="caplen" pos="0" show="64" showname="Captured Length" value="40" size="64"/>
    <field name="timestamp" pos="0" show="Jul 31, 2023 16:24:23.289992000 EDT" showname="Captured Time" value="1690835063.289992000" size="64"/>
  </proto>
  <proto name="frame" showname="Frame 504: 64 bytes on wire (512 bits), 64 bytes captured (512 bits) on interface usbmon1, id 0" size="64" pos="0">
    <field name="frame.section_number" showname="Section number: 1" size="0" pos="0" show="1"/>
    <field name="frame.interface_id" showname="Interface id: 0 (usbmon1)" size="0" pos="0" show="0">
      <field name="frame.interface_name" showname="Interface name: usbmon1" size="0" pos="0" show="usbmon1"/>
    </field>
    <field name="frame.encap_type" showname="Encapsulation type: USB packets with Linux header and padding (115)" size="0" pos="0" show="115"/>
    <field name="frame.time" showname="Arrival Time: Jul 31, 2023 16:24:23.289992000 EDT" size="0" pos="0" show="Jul 31, 2023 16:24:23.289992000 EDT"/>
    <field name="frame.offset_shift" showname="Time shift for this packet: 0.000000000 seconds" size="0" pos="0" show="0.000000000"/>
    <field name="frame.time_epoch" showname="Epoch Time: 1690835063.289992000 seconds" size="0" pos="0" show="1690835063.289992000"/>
    <field name="frame.time_delta" showname="Time delta from previous captured frame: 0.000066000 seconds" size="0" pos="0" show="0.000066000"/>
    <field name="frame.time_delta_displayed" showname="Time delta from previous displayed frame: 0.000066000 seconds" size="0" pos="0" show="0.000066000"/>
    <field name="frame.time_relative" showname="Time since reference or first frame: 8.156452000 seconds" size="0" pos="0" show="8.156452000"/>
    <field name="frame.number" showname="Frame Number: 504" size="0" pos="0" show="504"/>
    <field name="frame.len" showname="Frame Length: 64 bytes (512 bits)" size="0" pos="0" show="64"/>
    <field name="frame.cap_len" showname="Capture Length: 64 bytes (512 bits)" size="0" pos="0" show="64"/>
    <field name="frame.marked" showname="Frame is marked: False" size="0" pos="0" show="0"/>
    <field name="frame.ignored" showname="Frame is ignored: False" size="0" pos="0" show="0"/>
    <field name="frame.protocols" showname="Protocols in frame: usb" size="0" pos="0" show="usb"/>
  </proto>
  <proto name="usb" showname="USB URB" size="64" pos="0">
    <field name="usb.src" showname="Source: 1.14.2" size="0" pos="0" show="1.14.2"/>
    <field name="usb.addr" showname="Source or Destination: 1.14.2" hide="yes" size="0" pos="0" show="1.14.2"/>
    <field name="usb.dst" showname="Destination: host" size="0" pos="0" show="host"/>
    <field name="usb.addr" showname="Source or Destination: host" hide="yes" size="0" pos="0" show="host"/>
    <field name="usb.urb_id" showname="URB id: 0xffffa0f810db4fc0" size="8" pos="0" show="0xffffa0f810db4fc0" value="c04fdb10f8a0ffff"/>
    <field name="usb.urb_type" showname="URB type: URB_COMPLETE (&#x27;C&#x27;)" size="1" pos="8" show="&#x27;C&#x27;" value="43"/>
    <field name="usb.transfer_type" showname="URB transfer type: URB_BULK (0x03)" size="1" pos="9" show="0x03" value="03"/>
    <field name="usb.endpoint_address" showname="Endpoint: 0x02, Direction: OUT" size="1" pos="10" show="0x02" value="02">
      <field name="usb.endpoint_address.direction" showname="0... .... = Direction: OUT (0)" size="1" pos="10" show="0" value="0" unmaskedvalue="02"/>
      <field name="usb.endpoint_address.number" showname=".... 0010 = Endpoint number: 2" size="1" pos="10" show="2" value="2" unmaskedvalue="02"/>
    </field>
    <field name="usb.device_address" showname="Device: 14" size="1" pos="11" show="14" value="0e"/>
    <field name="usb.bus_id" showname="URB bus id: 1" size="2" pos="12" show="1" value="0100"/>
    <field name="usb.setup_flag" showname="Device setup request: not relevant (&#x27;-&#x27;)" size="1" pos="14" show="&#x27;-&#x27;" value="2d"/>
    <field name="usb.data_flag" showname="Data: not present (&#x27;&gt;&#x27;)" size="1" pos="15" show="&#x27;&gt;&#x27;" value="3e"/>
    <field name="usb.urb_ts_sec" showname="URB sec: 1690835063" size="8" pos="16" show="1690835063" value="7718c86400000000"/>
    <field name="usb.urb_ts_usec" showname="URB usec: 289992" size="4" pos="24" show="289992" value="c86c0400"/>
    <field name="usb.urb_status" showname="URB status: Success (0)" size="4" pos="28" show="0" value="00000000"/>
    <field name="usb.urb_len" showname="URB length [bytes]: 8" size="4" pos="32" show="8" value="08000000"/>
    <field name="usb.data_len" showname="Data length [bytes]: 0" size="4" pos="36" show="0" value="00000000"/>
    <field name="usb.request_in" showname="Request in: 503" size="0" pos="0" show="503"/>
    <field name="usb.time" showname="Time from request: 0.000066000 seconds" size="0" pos="0" show="0.000066000"/>
    <field name="usb.bInterfaceClass" showname="bInterfaceClass: Unknown (0xffff)" size="0" pos="0" show="0xff"/>
    <field name="usb.unused_setup_header" showname="Unused Setup Header" size="8" pos="40" show="" value=""/>
    <field name="usb.interval" showname="Interval: 0" size="4" pos="48" show="0" value="00000000"/>
    <field name="usb.start_frame" showname="Start frame: 0" size="4" pos="52" show="0" value="00000000"/>
    <field name="usb.copy_of_transfer_flags" showname="Copy of Transfer Flags: 0x00000000" size="4" pos="56" show="0x00000000" value="00000000">
      <field name="usb.transfer_flags.short_not_ok" showname=".... .... .... .... .... .... .... ...0 = Short not OK: False" size="4" pos="56" show="0" value="0" unmaskedvalue="00000000"/>
      <field name="usb.transfer_flags.iso_asap" showname=".... .... .... .... .... .... .... ..0. = ISO ASAP: False" size="4" pos="56" show="0" value="0" unmaskedvalue="00000000"/>
      <field name="usb.transfer_flags.no_transfer_dma_map" showname=".... .... .... .... .... .... .... .0.. = No transfer DMA map: False" size="4" pos="56" show="0" value="0" unmaskedvalue="00000000"/>
      <field name="usb.transfer_flags.no_fsbr" showname=".... .... .... .... .... .... ..0. .... = No FSBR: False" size="4" pos="56" show="0" value="0" unmaskedvalue="00000000"/>
      <field name="usb.transfer_flags.zero_packet" showname=".... .... .... .... .... .... .0.. .... = Zero Packet: False" size="4" pos="56" show="0" value="0" unmaskedvalue="00000000"/>
      <field name="usb.transfer_flags.no_interrupt" showname=".... .... .... .... .... .... 0... .... = No Interrupt: False" size="4" pos="56" show="0" value="0" unmaskedvalue="00000000"/>
      <field name="usb.transfer_flags.free_buffer" showname=".... .... .... .... .... ...0 .... .... = Free Buffer: False" size="4" pos="56" show="0" value="0" unmaskedvalue="00000000"/>
      <field name="usb.transfer_flags.dir_in" showname=".... .... .... .... .... ..0. .... .... = Dir IN: False" size="4" pos="56" show="0" value="0" unmaskedvalue="00000000"/>
      <field name="usb.transfer_flags.dma_map_single" showname=".... .... .... ...0 .... .... .... .... = DMA Map Single: False" size="4" pos="56" show="0" value="0" unmaskedvalue="00000000"/>
      <field name="usb.transfer_flags.dma_map_page" showname=".... .... .... ..0. .... .... .... .... = DMA Map Page: False" size="4" pos="56" show="0" value="0" unmaskedvalue="00000000"/>
      <field name="usb.transfer_flags.dma_map_sg" showname=".... .... .... .0.. .... .... .... .... = DMA Map SG: False" size="4" pos="56" show="0" value="0" unmaskedvalue="00000000"/>
      <field name="usb.transfer_flags.map_local" showname=".... .... .... 0... .... .... .... .... = Map Local: False" size="4" pos="56" show="0" value="0" unmaskedvalue="00000000"/>
      <field name="usb.transfer_flags.setup_map_single" showname=".... .... ...0 .... .... .... .... .... = Setup Map Single: False" size="4" pos="56" show="0" value="0" unmaskedvalue="00000000"/>
      <field name="usb.transfer_flags.setup_map_local" showname=".... .... ..0. .... .... .... .... .... = Setup Map Local: False" size="4" pos="56" show="0" value="0" unmaskedvalue="00000000"/>
      <field name="usb.transfer_flags.dma_sg_combined" showname=".... .... .0.. .... .... .... .... .... = DMA S-G Combined: False" size="4" pos="56" show="0" value="0" unmaskedvalue="00000000"/>
      <field name="usb.transfer_flags.aligned_temp_buffer" showname=".... .... 0... .... .... .... .... .... = Aligned Temp Buffer: False" size="4" pos="56" show="0" value="0" unmaskedvalue="00000000"/>
    </field>
    <field name="usb.iso.numdesc" showname="Number of ISO descriptors: 0" size="4" pos="60" show="0" value="00000000"/>
  </proto>
</packet>

<packet>
  <proto name="geninfo" pos="0" showname="General information" size="65">
    <field name="num" pos="0" show="505" showname="Number" value="1f9" size="65"/>
    <field name="len" pos="0" show="65" showname="Frame Length" value="41" size="65"/>
    <field name="caplen" pos="0" show="65" showname="Captured Length" value="41" size="65"/>
    <field name="timestamp" pos="0" show="Jul 31, 2023 16:24:23.294919000 EDT" showname="Captured Time" value="1690835063.294919000" size="65"/>
  </proto>
  <proto name="frame" showname="Frame 505: 65 bytes on wire (520 bits), 65 bytes captured (520 bits) on interface usbmon1, id 0" size="65" pos="0">
    <field name="frame.section_number" showname="Section number: 1" size="0" pos="0" show="1"/>
    <field name="frame.interface_id" showname="Interface id: 0 (usbmon1)" size="0" pos="0" show="0">
      <field name="frame.interface_name" showname="Interface name: usbmon1" size="0" pos="0" show="usbmon1"/>
    </field>
    <field name="frame.encap_type" showname="Encapsulation type: USB packets with Linux header and padding (115)" size="0" pos="0" show="115"/>
    <field name="frame.time" showname="Arrival Time: Jul 31, 2023 16:24:23.294919000 EDT" size="0" pos="0" show="Jul 31, 2023 16:24:23.294919000 EDT"/>
    <field name="frame.offset_shift" showname="Time shift for this packet: 0.000000000 seconds" size="0" pos="0" show="0.000000000"/>
    <field name="frame.time_epoch" showname="Epoch Time: 1690835063.294919000 seconds" size="0" pos="0" show="1690835063.294919000"/>
    <field name="frame.time_delta" showname="Time delta from previous captured frame: 0.004927000 seconds" size="0" pos="0" show="0.004927000"/>
    <field name="frame.time_delta_displayed" showname="Time delta from previous displayed frame: 0.004927000 seconds" size="0" pos="0" show="0.004927000"/>
    <field name="frame.time_relative" showname="Time since reference or first frame: 8.161379000 seconds" size="0" pos="0" show="8.161379000"/>
    <field name="frame.number" showname="Frame Number: 505" size="0" pos="0" show="505"/>
    <field name="frame.len" showname="Frame Length: 65 bytes (520 bits)" size="0" pos="0" show="65"/>
    <field name="frame.cap_len" showname="Capture Length: 65 bytes (520 bits)" size="0" pos="0" show="65"/>
    <field name="frame.marked" showname="Frame is marked: False" size="0" pos="0" show="0"/>
    <field name="frame.ignored" showname="Frame is ignored: False" size="0" pos="0" show="0"/>
    <field name="frame.protocols" showname="Protocols in frame: usb" size="0" pos="0" show="usb"/>
  </proto>
  <proto name="usb" showname="USB URB" size="64" pos="0">
    <field name="usb.src" showname="Source: 1.14.3" size="0" pos="0" show="1.14.3"/>
    <field name="usb.addr" showname="Source or Destination: 1.14.3" hide="yes" size="0" pos="0" show="1.14.3"/>
    <field name="usb.dst" showname="Destination: host" size="0" pos="0" show="host"/>
    <field name="usb.addr" showname="Source or Destination: host" hide="yes" size="0" pos="0" show="host"/>
    <field name="usb.urb_id" showname="URB id: 0xffffa0f810db5800" size="8" pos="0" show="0xffffa0f810db5800" value="0058db10f8a0ffff"/>
    <field name="usb.urb_type" showname="URB type: URB_COMPLETE (&#x27;C&#x27;)" size="1" pos="8" show="&#x27;C&#x27;" value="43"/>
    <field name="usb.transfer_type" showname="URB transfer type: URB_BULK (0x03)" size="1" pos="9" show="0x03" value="03"/>
    <field name="usb.endpoint_address" showname="Endpoint: 0x83, Direction: IN" size="1" pos="10" show="0x83" value="83">
      <field name="usb.endpoint_address.direction" showname="1... .... = Direction: IN (1)" size="1" pos="10" show="1" value="1" unmaskedvalue="83"/>
      <field name="usb.endpoint_address.number" showname=".... 0011 = Endpoint number: 3" size="1" pos="10" show="3" value="3" unmaskedvalue="83"/>
    </field>
    <field name="usb.device_address" showname="Device: 14" size="1" pos="11" show="14" value="0e"/>
    <field name="usb.bus_id" showname="URB bus id: 1" size="2" pos="12" show="1" value="0100"/>
    <field name="usb.setup_flag" showname="Device setup request: not relevant (&#x27;-&#x27;)" size="1" pos="14" show="&#x27;-&#x27;" value="2d"/>
    <field name="usb.data_flag" showname="Data: present (&#x27;\0&#x27;)" size="1" pos="15" show="&#x27;\0&#x27;" value="00"/>
    <field name="usb.urb_ts_sec" showname="URB sec: 1690835063" size="8" pos="16" show="1690835063" value="7718c86400000000"/>
    <field name="usb.urb_ts_usec" showname="URB usec: 294919" size="4" pos="24" show="294919" value="07800400"/>
    <field name="usb.urb_status" showname="URB status: Success (0)" size="4" pos="28" show="0" value="00000000"/>
    <field name="usb.urb_len" showname="URB length [bytes]: 1" size="4" pos="32" show="1" value="01000000"/>
    <field name="usb.data_len" showname="Data length [bytes]: 1" size="4" pos="36" show="1" value="01000000"/>
    <field name="usb.request_in" showname="Request in: 500" size="0" pos="0" show="500"/>
    <field name="usb.time" showname="Time from request: 0.063844000 seconds" size="0" pos="0" show="0.063844000"/>
    <field name="usb.bInterfaceClass" showname="bInterfaceClass: Unknown (0xffff)" size="0" pos="0" show="0xff"/>
    <field name="usb.unused_setup_header" showname="Unused Setup Header" size="8" pos="40" show="" value=""/>
    <field name="usb.interval" showname="Interval: 0" size="4" pos="48" show="0" value="00000000"/>
    <field name="usb.start_frame" showname="Start frame: 0" size="4" pos="52" show="0" value="00000000"/>
    <field name="usb.copy_of_transfer_flags" showname="Copy of Transfer Flags: 0x00000200, Dir IN" size="4" pos="56" show="0x00000200" value="00020000">
      <field name="usb.transfer_flags.short_not_ok" showname=".... .... .... .... .... .... .... ...0 = Short not OK: False" size="4" pos="56" show="0" value="0" unmaskedvalue="00020000"/>
      <field name="usb.transfer_flags.iso_asap" showname=".... .... .... .... .... .... .... ..0. = ISO ASAP: False" size="4" pos="56" show="0" value="0" unmaskedvalue="00020000"/>
      <field name="usb.transfer_flags.no_transfer_dma_map" showname=".... .... .... .... .... .... .... .0.. = No transfer DMA map: False" size="4" pos="56" show="0" value="0" unmaskedvalue="00020000"/>
      <field name="usb.transfer_flags.no_fsbr" showname=".... .... .... .... .... .... ..0. .... = No FSBR: False" size="4" pos="56" show="0" value="0" unmaskedvalue="00020000"/>
      <field name="usb.transfer_flags.zero_packet" showname=".... .... .... .... .... .... .0.. .... = Zero Packet: False" size="4" pos="56" show="0" value="0" unmaskedvalue="00020000"/>
      <field name="usb.transfer_flags.no_interrupt" showname=".... .... .... .... .... .... 0... .... = No Interrupt: False" size="4" pos="56" show="0" value="0" unmaskedvalue="00020000"/>
      <field name="usb.transfer_flags.free_buffer" showname=".... .... .... .... .... ...0 .... .... = Free Buffer: False" size="4" pos="56" show="0" value="0" unmaskedvalue="00020000"/>
      <field name="usb.transfer_flags.dir_in" showname=".... .... .... .... .... ..1. .... .... = Dir IN: True" size="4" pos="56" show="1" value="1" unmaskedvalue="00020000"/>
      <field name="usb.transfer_flags.dma_map_single" showname=".... .... .... ...0 .... .... .... .... = DMA Map Single: False" size="4" pos="56" show="0" value="0" unmaskedvalue="00020000"/>
      <field name="usb.transfer_flags.dma_map_page" showname=".... .... .... ..0. .... .... .... .... = DMA Map Page: False" size="4" pos="56" show="0" value="0" unmaskedvalue="00020000"/>
      <field name="usb.transfer_flags.dma_map_sg" showname=".... .... .... .0.. .... .... .... .... = DMA Map SG: False" size="4" pos="56" show="0" value="0" unmaskedvalue="00020000"/>
      <field name="usb.transfer_flags.map_local" showname=".... .... .... 0... .... .... .... .... = Map Local: False" size="4" pos="56" show="0" value="0" unmaskedvalue="00020000"/>
      <field name="usb.transfer_flags.setup_map_single" showname=".... .... ...0 .... .... .... .... .... = Setup Map Single: False" size="4" pos="56" show="0" value="0" unmaskedvalue="00020000"/>
      <field name="usb.transfer_flags.setup_map_local" showname=".... .... ..0. .... .... .... .... .... = Setup Map Local: False" size="4" pos="56" show="0" value="0" unmaskedvalue="00020000"/>
      <field name="usb.transfer_flags.dma_sg_combined" showname=".... .... .0.. .... .... .... .... .... = DMA S-G Combined: False" size="4" pos="56" show="0" value="0" unmaskedvalue="00020000"/>
      <field name="usb.transfer_flags.aligned_temp_buffer" showname=".... .... 0... .... .... .... .... .... = Aligned Temp Buffer: False" size="4" pos="56" show="0" value="0" unmaskedvalue="00020000"/>
    </field>
    <field name="usb.iso.numdesc" showname="Number of ISO descriptors: 0" size="4" pos="60" show="0" value="00000000"/>
  </proto>
  <proto name="fake-field-wrapper">
    <field name="usb.capdata" showname="Leftover Capture Data: 3f" size="1" pos="64" show="3f" value="3f"/>
  </proto>
</packet>

<packet>
  <proto name="geninfo" pos="0" showname="General information" size="64">
    <field name="num" pos="0" show="506" showname="Number" value="1fa" size="64"/>
    <field name="len" pos="0" show="64" showname="Frame Length" value="40" size="64"/>
    <field name="caplen" pos="0" show="64" showname="Captured Length" value="40" size="64"/>
    <field name="timestamp" pos="0" show="Jul 31, 2023 16:24:23.295184000 EDT" showname="Captured Time" value="1690835063.295184000" size="64"/>
  </proto>
  <proto name="frame" showname="Frame 506: 64 bytes on wire (512 bits), 64 bytes captured (512 bits) on interface usbmon1, id 0" size="64" pos="0">
    <field name="frame.section_number" showname="Section number: 1" size="0" pos="0" show="1"/>
    <field name="frame.interface_id" showname="Interface id: 0 (usbmon1)" size="0" pos="0" show="0">
      <field name="frame.interface_name" showname="Interface name: usbmon1" size="0" pos="0" show="usbmon1"/>
    </field>
    <field name="frame.encap_type" showname="Encapsulation type: USB packets with Linux header and padding (115)" size="0" pos="0" show="115"/>
    <field name="frame.time" showname="Arrival Time: Jul 31, 2023 16:24:23.295184000 EDT" size="0" pos="0" show="Jul 31, 2023 16:24:23.295184000 EDT"/>
    <field name="frame.offset_shift" showname="Time shift for this packet: 0.000000000 seconds" size="0" pos="0" show="0.000000000"/>
    <field name="frame.time_epoch" showname="Epoch Time: 1690835063.295184000 seconds" size="0" pos="0" show="1690835063.295184000"/>
    <field name="frame.time_delta" showname="Time delta from previous captured frame: 0.000265000 seconds" size="0" pos="0" show="0.000265000"/>
    <field name="frame.time_delta_displayed" showname="Time delta from previous displayed frame: 0.000265000 seconds" size="0" pos="0" show="0.000265000"/>
    <field name="frame.time_relative" showname="Time since reference or first frame: 8.161644000 seconds" size="0" pos="0" show="8.161644000"/>
    <field name="frame.number" showname="Frame Number: 506" size="0" pos="0" show="506"/>
    <field name="frame.len" showname="Frame Length: 64 bytes (512 bits)" size="0" pos="0" show="64"/>
    <field name="frame.cap_len" showname="Capture Length: 64 bytes (512 bits)" size="0" pos="0" show="64"/>
    <field name="frame.marked" showname="Frame is marked: False" size="0" pos="0" show="0"/>
    <field name="frame.ignored" showname="Frame is ignored: False" size="0" pos="0" show="0"/>
    <field name="frame.protocols" showname="Protocols in frame: usb" size="0" pos="0" show="usb"/>
  </proto>
  <proto name="usb" showname="USB URB" size="64" pos="0">
    <field name="usb.src" showname="Source: host" size="0" pos="0" show="host"/>
    <field name="usb.addr" showname="Source or Destination: host" hide="yes" size="0" pos="0" show="host"/>
    <field name="usb.dst" showname="Destination: 1.14.3" size="0" pos="0" show="1.14.3"/>
    <field name="usb.addr" showname="Source or Destination: 1.14.3" hide="yes" size="0" pos="0" show="1.14.3"/>
    <field name="usb.urb_id" showname="URB id: 0xffffa0f810db4f00" size="8" pos="0" show="0xffffa0f810db4f00" value="004fdb10f8a0ffff"/>
    <field name="usb.urb_type" showname="URB type: URB_SUBMIT (&#x27;S&#x27;)" size="1" pos="8" show="&#x27;S&#x27;" value="53"/>
    <field name="usb.transfer_type" showname="URB transfer type: URB_BULK (0x03)" size="1" pos="9" show="0x03" value="03"/>
    <field name="usb.endpoint_address" showname="Endpoint: 0x83, Direction: IN" size="1" pos="10" show="0x83" value="83">
      <field name="usb.endpoint_address.direction" showname="1... .... = Direction: IN (1)" size="1" pos="10" show="1" value="1" unmaskedvalue="83"/>
      <field name="usb.endpoint_address.number" showname=".... 0011 = Endpoint number: 3" size="1" pos="10" show="3" value="3" unmaskedvalue="83"/>
    </field>
    <field name="usb.device_address" showname="Device: 14" size="1" pos="11" show="14" value="0e"/>
    <field name="usb.bus_id" showname="URB bus id: 1" size="2" pos="12" show="1" value="0100"/>
    <field name="usb.setup_flag" showname="Device setup request: not relevant (&#x27;-&#x27;)" size="1" pos="14" show="&#x27;-&#x27;" value="2d"/>
    <field name="usb.data_flag" showname="Data: not present (&#x27;&lt;&#x27;)" size="1" pos="15" show="&#x27;&lt;&#x27;" value="3c"/>
    <field name="usb.urb_ts_sec" showname="URB sec: 1690835063" size="8" pos="16" show="1690835063" value="7718c86400000000"/>
    <field name="usb.urb_ts_usec" showname="URB usec: 295184" size="4" pos="24" show="295184" value="10810400"/>
    <field name="usb.urb_status" showname="URB status: Operation now in progress (-EINPROGRESS) (-115)" size="4" pos="28" show="-115" value="8dffffff"/>
    <field name="usb.urb_len" showname="URB length [bytes]: 64" size="4" pos="32" show="64" value="40000000"/>
    <field name="usb.data_len" showname="Data length [bytes]: 0" size="4" pos="36" show="0" value="00000000"/>
    <field name="usb.response_in" showname="Response in: 507" size="0" pos="0" show="507"/>
    <field name="usb.bInterfaceClass" showname="bInterfaceClass: Unknown (0xffff)" size="0" pos="0" show="0xff"/>
    <field name="usb.unused_setup_header" showname="Unused Setup Header" size="8" pos="40" show="" value=""/>
    <field name="usb.interval" showname="Interval: 0" size="4" pos="48" show="0" value="00000000"/>
    <field name="usb.start_frame" showname="Start frame: 0" size="4" pos="52" show="0" value="00000000"/>
    <field name="usb.copy_of_transfer_flags" showname="Copy of Transfer Flags: 0x00000200, Dir IN" size="4" pos="56" show="0x00000200" value="00020000">
      <field name="usb.transfer_flags.short_not_ok" showname=".... .... .... .... .... .... .... ...0 = Short not OK: False" size="4" pos="56" show="0" value="0" unmaskedvalue="00020000"/>
      <field name="usb.transfer_flags.iso_asap" showname=".... .... .... .... .... .... .... ..0. = ISO ASAP: False" size="4" pos="56" show="0" value="0" unmaskedvalue="00020000"/>
      <field name="usb.transfer_flags.no_transfer_dma_map" showname=".... .... .... .... .... .... .... .0.. = No transfer DMA map: False" size="4" pos="56" show="0" value="0" unmaskedvalue="00020000"/>
      <field name="usb.transfer_flags.no_fsbr" showname=".... .... .... .... .... .... ..0. .... = No FSBR: False" size="4" pos="56" show="0" value="0" unmaskedvalue="00020000"/>
      <field name="usb.transfer_flags.zero_packet" showname=".... .... .... .... .... .... .0.. .... = Zero Packet: False" size="4" pos="56" show="0" value="0" unmaskedvalue="00020000"/>
      <field name="usb.transfer_flags.no_interrupt" showname=".... .... .... .... .... .... 0... .... = No Interrupt: False" size="4" pos="56" show="0" value="0" unmaskedvalue="00020000"/>
      <field name="usb.transfer_flags.free_buffer" showname=".... .... .... .... .... ...0 .... .... = Free Buffer: False" size="4" pos="56" show="0" value="0" unmaskedvalue="00020000"/>
      <field name="usb.transfer_flags.dir_in" showname=".... .... .... .... .... ..1. .... .... = Dir IN: True" size="4" pos="56" show="1" value="1" unmaskedvalue="00020000"/>
      <field name="usb.transfer_flags.dma_map_single" showname=".... .... .... ...0 .... .... .... .... = DMA Map Single: False" size="4" pos="56" show="0" value="0" unmaskedvalue="00020000"/>
      <field name="usb.transfer_flags.dma_map_page" showname=".... .... .... ..0. .... .... .... .... = DMA Map Page: False" size="4" pos="56" show="0" value="0" unmaskedvalue="00020000"/>
      <field name="usb.transfer_flags.dma_map_sg" showname=".... .... .... .0.. .... .... .... .... = DMA Map SG: False" size="4" pos="56" show="0" value="0" unmaskedvalue="00020000"/>
      <field name="usb.transfer_flags.map_local" showname=".... .... .... 0... .... .... .... .... = Map Local: False" size="4" pos="56" show="0" value="0" unmaskedvalue="00020000"/>
      <field name="usb.transfer_flags.setup_map_single" showname=".... .... ...0 .... .... .... .... .... = Setup Map Single: False" size="4" pos="56" show="0" value="0" unmaskedvalue="00020000"/>
      <field name="usb.transfer_flags.setup_map_local" showname=".... .... ..0. .... .... .... .... .... = Setup Map Local: False" size="4" pos="56" show="0" value="0" unmaskedvalue="00020000"/>
      <field name="usb.transfer_flags.dma_sg_combined" showname=".... .... .0.. .... .... .... .... .... = DMA S-G Combined: False" size="4" pos="56" show="0" value="0" unmaskedvalue="00020000"/>
      <field name="usb.transfer_flags.aligned_temp_buffer" showname=".... .... 0... .... .... .... .... .... = Aligned Temp Buffer: False" size="4" pos="56" show="0" value="0" unmaskedvalue="00020000"/>
    </field>
    <field name="usb.iso.numdesc" showname="Number of ISO descriptors: 0" size="4" pos="60" show="0" value="00000000"/>
  </proto>
</packet>

<packet>
  <proto name="geninfo" pos="0" showname="General information" size="65">
    <field name="num" pos="0" show="507" showname="Number" value="1fb" size="65"/>
    <field name="len" pos="0" show="65" showname="Frame Length" value="41" size="65"/>
    <field name="caplen" pos="0" show="65" showname="Captured Length" value="41" size="65"/>
    <field name="timestamp" pos="0" show="Jul 31, 2023 16:24:23.295240000 EDT" showname="Captured Time" value="1690835063.295240000" size="65"/>
  </proto>
  <proto name="frame" showname="Frame 507: 65 bytes on wire (520 bits), 65 bytes captured (520 bits) on interface usbmon1, id 0" size="65" pos="0">
    <field name="frame.section_number" showname="Section number: 1" size="0" pos="0" show="1"/>
    <field name="frame.interface_id" showname="Interface id: 0 (usbmon1)" size="0" pos="0" show="0">
      <field name="frame.interface_name" showname="Interface name: usbmon1" size="0" pos="0" show="usbmon1"/>
    </field>
    <field name="frame.encap_type" showname="Encapsulation type: USB packets with Linux header and padding (115)" size="0" pos="0" show="115"/>
    <field name="frame.time" showname="Arrival Time: Jul 31, 2023 16:24:23.295240000 EDT" size="0" pos="0" show="Jul 31, 2023 16:24:23.295240000 EDT"/>
    <field name="frame.offset_shift" showname="Time shift for this packet: 0.000000000 seconds" size="0" pos="0" show="0.000000000"/>
    <field name="frame.time_epoch" showname="Epoch Time: 1690835063.295240000 seconds" size="0" pos="0" show="1690835063.295240000"/>
    <field name="frame.time_delta" showname="Time delta from previous captured frame: 0.000056000 seconds" size="0" pos="0" show="0.000056000"/>
    <field name="frame.time_delta_displayed" showname="Time delta from previous displayed frame: 0.000056000 seconds" size="0" pos="0" show="0.000056000"/>
    <field name="frame.time_relative" showname="Time since reference or first frame: 8.161700000 seconds" size="0" pos="0" show="8.161700000"/>
    <field name="frame.number" showname="Frame Number: 507" size="0" pos="0" show="507"/>
    <field name="frame.len" showname="Frame Length: 65 bytes (520 bits)" size="0" pos="0" show="65"/>
    <field name="frame.cap_len" showname="Capture Length: 65 bytes (520 bits)" size="0" pos="0" show="65"/>
    <field name="frame.marked" showname="Frame is marked: False" size="0" pos="0" show="0"/>
    <field name="frame.ignored" showname="Frame is ignored: False" size="0" pos="0" show="0"/>
    <field name="frame.protocols" showname="Protocols in frame: usb" size="0" pos="0" show="usb"/>
  </proto>
  <proto name="usb" showname="USB URB" size="64" pos="0">
    <field name="usb.src" showname="Source: 1.14.3" size="0" pos="0" show="1.14.3"/>
    <field name="usb.addr" showname="Source or Destination: 1.14.3" hide="yes" size="0" pos="0" show="1.14.3"/>
    <field name="usb.dst" showname="Destination: host" size="0" pos="0" show="host"/>
    <field name="usb.addr" showname="Source or Destination: host" hide="yes" size="0" pos="0" show="host"/>
    <field name="usb.urb_id" showname="URB id: 0xffffa0f810db4f00" size="8" pos="0" show="0xffffa0f810db4f00" value="004fdb10f8a0ffff"/>
    <field name="usb.urb_type" showname="URB type: URB_COMPLETE (&#x27;C&#x27;)" size="1" pos="8" show="&#x27;C&#x27;" value="43"/>
    <field name="usb.transfer_type" showname="URB transfer type: URB_BULK (0x03)" size="1" pos="9" show="0x03" value="03"/>
    <field name="usb.endpoint_address" showname="Endpoint: 0x83, Direction: IN" size="1" pos="10" show="0x83" value="83">
      <field name="usb.endpoint_address.direction" showname="1... .... = Direction: IN (1)" size="1" pos="10" show="1" value="1" unmaskedvalue="83"/>
      <field name="usb.endpoint_address.number" showname=".... 0011 = Endpoint number: 3" size="1" pos="10" show="3" value="3" unmaskedvalue="83"/>
    </field>
    <field name="usb.device_address" showname="Device: 14" size="1" pos="11" show="14" value="0e"/>
    <field name="usb.bus_id" showname="URB bus id: 1" size="2" pos="12" show="1" value="0100"/>
    <field name="usb.setup_flag" showname="Device setup request: not relevant (&#x27;-&#x27;)" size="1" pos="14" show="&#x27;-&#x27;" value="2d"/>
    <field name="usb.data_flag" showname="Data: present (&#x27;\0&#x27;)" size="1" pos="15" show="&#x27;\0&#x27;" value="00"/>
    <field name="usb.urb_ts_sec" showname="URB sec: 1690835063" size="8" pos="16" show="1690835063" value="7718c86400000000"/>
    <field name="usb.urb_ts_usec" showname="URB usec: 295240" size="4" pos="24" show="295240" value="48810400"/>
    <field name="usb.urb_status" showname="URB status: Success (0)" size="4" pos="28" show="0" value="00000000"/>
    <field name="usb.urb_len" showname="URB length [bytes]: 1" size="4" pos="32" show="1" value="01000000"/>
    <field name="usb.data_len" showname="Data length [bytes]: 1" size="4" pos="36" show="1" value="01000000"/>
    <field name="usb.request_in" showname="Request in: 506" size="0" pos="0" show="506"/>
    <field name="usb.time" showname="Time from request: 0.000056000 seconds" size="0" pos="0" show="0.000056000"/>
    <field name="usb.bInterfaceClass" showname="bInterfaceClass: Unknown (0xffff)" size="0" pos="0" show="0xff"/>
    <field name="usb.unused_setup_header" showname="Unused Setup Header" size="8" pos="40" show="" value=""/>
    <field name="usb.interval" showname="Interval: 0" size="4" pos="48" show="0" value="00000000"/>
    <field name="usb.start_frame" showname="Start frame: 0" size="4" pos="52" show="0" value="00000000"/>
    <field name="usb.copy_of_transfer_flags" showname="Copy of Transfer Flags: 0x00000200, Dir IN" size="4" pos="56" show="0x00000200" value="00020000">
      <field name="usb.transfer_flags.short_not_ok" showname=".... .... .... .... .... .... .... ...0 = Short not OK: False" size="4" pos="56" show="0" value="0" unmaskedvalue="00020000"/>
      <field name="usb.transfer_flags.iso_asap" showname=".... .... .... .... .... .... .... ..0. = ISO ASAP: False" size="4" pos="56" show="0" value="0" unmaskedvalue="00020000"/>
      <field name="usb.transfer_flags.no_transfer_dma_map" showname=".... .... .... .... .... .... .... .0.. = No transfer DMA map: False" size="4" pos="56" show="0" value="0" unmaskedvalue="00020000"/>
      <field name="usb.transfer_flags.no_fsbr" showname=".... .... .... .... .... .... ..0. .... = No FSBR: False" size="4" pos="56" show="0" value="0" unmaskedvalue="00020000"/>
      <field name="usb.transfer_flags.zero_packet" showname=".... .... .... .... .... .... .0.. .... = Zero Packet: False" size="4" pos="56" show="0" value="0" unmaskedvalue="00020000"/>
      <field name="usb.transfer_flags.no_interrupt" showname=".... .... .... .... .... .... 0... .... = No Interrupt: False" size="4" pos="56" show="0" value="0" unmaskedvalue="00020000"/>
      <field name="usb.transfer_flags.free_buffer" showname=".... .... .... .... .... ...0 .... .... = Free Buffer: False" size="4" pos="56" show="0" value="0" unmaskedvalue="00020000"/>
      <field name="usb.transfer_flags.dir_in" showname=".... .... .... .... .... ..1. .... .... = Dir IN: True" size="4" pos="56" show="1" value="1" unmaskedvalue="00020000"/>
      <field name="usb.transfer_flags.dma_map_single" showname=".... .... .... ...0 .... .... .... .... = DMA Map Single: False" size="4" pos="56" show="0" value="0" unmaskedvalue="00020000"/>
      <field name="usb.transfer_flags.dma_map_page" showname=".... .... .... ..0. .... .... .... .... = DMA Map Page: False" size="4" pos="56" show="0" value="0" unmaskedvalue="00020000"/>
      <field name="usb.transfer_flags.dma_map_sg" showname=".... .... .... .0.. .... .... .... .... = DMA Map SG: False" size="4" pos="56" show="0" value="0" unmaskedvalue="00020000"/>
      <field name="usb.transfer_flags.map_local" showname=".... .... .... 0... .... .... .... .... = Map Local: False" size="4" pos="56" show="0" value="0" unmaskedvalue="00020000"/>
      <field name="usb.transfer_flags.setup_map_single" showname=".... .... ...0 .... .... .... .... .... = Setup Map Single: False" size="4" pos="56" show="0" value="0" unmaskedvalue="00020000"/>
      <field name="usb.transfer_flags.setup_map_local" showname=".... .... ..0. .... .... .... .... .... = Setup Map Local: False" size="4" pos="56" show="0" value="0" unmaskedvalue="00020000"/>
      <field name="usb.transfer_flags.dma_sg_combined" showname=".... .... .0.. .... .... .... .... .... = DMA S-G Combined: False" size="4" pos="56" show="0" value="0" unmaskedvalue="00020000"/>
      <field name="usb.transfer_flags.aligned_temp_buffer" showname=".... .... 0... .... .... .... .... .... = Aligned Temp Buffer: False" size="4" pos="56" show="0" value="0" unmaskedvalue="00020000"/>
    </field>
    <field name="usb.iso.numdesc" showname="Number of ISO descriptors: 0" size="4" pos="60" show="0" value="00000000"/>
  </proto>
  <proto name="fake-field-wrapper">
    <field name="usb.capdata" showname="Leftover Capture Data: 03" size="1" pos="64" show="03" value="03"/>
  </proto>
</packet>

<packet>
  <proto name="geninfo" pos="0" showname="General information" size="64">
    <field name="num" pos="0" show="508" showname="Number" value="1fc" size="64"/>
    <field name="len" pos="0" show="64" showname="Frame Length" value="40" size="64"/>
    <field name="caplen" pos="0" show="64" showname="Captured Length" value="40" size="64"/>
    <field name="timestamp" pos="0" show="Jul 31, 2023 16:24:23.295468000 EDT" showname="Captured Time" value="1690835063.295468000" size="64"/>
  </proto>
  <proto name="frame" showname="Frame 508: 64 bytes on wire (512 bits), 64 bytes captured (512 bits) on interface usbmon1, id 0" size="64" pos="0">
    <field name="frame.section_number" showname="Section number: 1" size="0" pos="0" show="1"/>
    <field name="frame.interface_id" showname="Interface id: 0 (usbmon1)" size="0" pos="0" show="0">
      <field name="frame.interface_name" showname="Interface name: usbmon1" size="0" pos="0" show="usbmon1"/>
    </field>
    <field name="frame.encap_type" showname="Encapsulation type: USB packets with Linux header and padding (115)" size="0" pos="0" show="115"/>
    <field name="frame.time" showname="Arrival Time: Jul 31, 2023 16:24:23.295468000 EDT" size="0" pos="0" show="Jul 31, 2023 16:24:23.295468000 EDT"/>
    <field name="frame.offset_shift" showname="Time shift for this packet: 0.000000000 seconds" size="0" pos="0" show="0.000000000"/>
    <field name="frame.time_epoch" showname="Epoch Time: 1690835063.295468000 seconds" size="0" pos="0" show="1690835063.295468000"/>
    <field name="frame.time_delta" showname="Time delta from previous captured frame: 0.000228000 seconds" size="0" pos="0" show="0.000228000"/>
    <field name="frame.time_delta_displayed" showname="Time delta from previous displayed frame: 0.000228000 seconds" size="0" pos="0" show="0.000228000"/>
    <field name="frame.time_relative" showname="Time since reference or first frame: 8.161928000 seconds" size="0" pos="0" show="8.161928000"/>
    <field name="frame.number" showname="Frame Number: 508" size="0" pos="0" show="508"/>
    <field name="frame.len" showname="Frame Length: 64 bytes (512 bits)" size="0" pos="0" show="64"/>
    <field name="frame.cap_len" showname="Capture Length: 64 bytes (512 bits)" size="0" pos="0" show="64"/>
    <field name="frame.marked" showname="Frame is marked: False" size="0" pos="0" show="0"/>
    <field name="frame.ignored" showname="Frame is ignored: False" size="0" pos="0" show="0"/>
    <field name="frame.protocols" showname="Protocols in frame: usb" size="0" pos="0" show="usb"/>
  </proto>
  <proto name="usb" showname="USB URB" size="64" pos="0">
    <field name="usb.src" showname="Source: host" size="0" pos="0" show="host"/>
    <field name="usb.addr" showname="Source or Destination: host" hide="yes" size="0" pos="0" show="host"/>
    <field name="usb.dst" showname="Destination: 1.14.3" size="0" pos="0" show="1.14.3"/>
    <field name="usb.addr" showname="Source or Destination: 1.14.3" hide="yes" size="0" pos="0" show="1.14.3"/>
    <field name="usb.urb_id" showname="URB id: 0xffffa0f810db4f00" size="8" pos="0" show="0xffffa0f810db4f00" value="004fdb10f8a0ffff"/>
    <field name="usb.urb_type" showname="URB type: URB_SUBMIT (&#x27;S&#x27;)" size="1" pos="8" show="&#x27;S&#x27;" value="53"/>
    <field name="usb.transfer_type" showname="URB transfer type: URB_BULK (0x03)" size="1" pos="9" show="0x03" value="03"/>
    <field name="usb.endpoint_address" showname="Endpoint: 0x83, Direction: IN" size="1" pos="10" show="0x83" value="83">
      <field name="usb.endpoint_address.direction" showname="1... .... = Direction: IN (1)" size="1" pos="10" show="1" value="1" unmaskedvalue="83"/>
      <field name="usb.endpoint_address.number" showname=".... 0011 = Endpoint number: 3" size="1" pos="10" show="3" value="3" unmaskedvalue="83"/>
    </field>
    <field name="usb.device_address" showname="Device: 14" size="1" pos="11" show="14" value="0e"/>
    <field name="usb.bus_id" showname="URB bus id: 1" size="2" pos="12" show="1" value="0100"/>
    <field name="usb.setup_flag" showname="Device setup request: not relevant (&#x27;-&#x27;)" size="1" pos="14" show="&#x27;-&#x27;" value="2d"/>
    <field name="usb.data_flag" showname="Data: not present (&#x27;&lt;&#x27;)" size="1" pos="15" show="&#x27;&lt;&#x27;" value="3c"/>
    <field name="usb.urb_ts_sec" showname="URB sec: 1690835063" size="8" pos="16" show="1690835063" value="7718c86400000000"/>
    <field name="usb.urb_ts_usec" showname="URB usec: 295468" size="4" pos="24" show="295468" value="2c820400"/>
    <field name="usb.urb_status" showname="URB status: Operation now in progress (-EINPROGRESS) (-115)" size="4" pos="28" show="-115" value="8dffffff"/>
    <field name="usb.urb_len" showname="URB length [bytes]: 64" size="4" pos="32" show="64" value="40000000"/>
    <field name="usb.data_len" showname="Data length [bytes]: 0" size="4" pos="36" show="0" value="00000000"/>
    <field name="usb.response_in" showname="Response in: 509" size="0" pos="0" show="509"/>
    <field name="usb.bInterfaceClass" showname="bInterfaceClass: Unknown (0xffff)" size="0" pos="0" show="0xff"/>
    <field name="usb.unused_setup_header" showname="Unused Setup Header" size="8" pos="40" show="" value=""/>
    <field name="usb.interval" showname="Interval: 0" size="4" pos="48" show="0" value="00000000"/>
    <field name="usb.start_frame" showname="Start frame: 0" size="4" pos="52" show="0" value="00000000"/>
    <field name="usb.copy_of_transfer_flags" showname="Copy of Transfer Flags: 0x00000200, Dir IN" size="4" pos="56" show="0x00000200" value="00020000">
      <field name="usb.transfer_flags.short_not_ok" showname=".... .... .... .... .... .... .... ...0 = Short not OK: False" size="4" pos="56" show="0" value="0" unmaskedvalue="00020000"/>
      <field name="usb.transfer_flags.iso_asap" showname=".... .... .... .... .... .... .... ..0. = ISO ASAP: False" size="4" pos="56" show="0" value="0" unmaskedvalue="00020000"/>
      <field name="usb.transfer_flags.no_transfer_dma_map" showname=".... .... .... .... .... .... .... .0.. = No transfer DMA map: False" size="4" pos="56" show="0" value="0" unmaskedvalue="00020000"/>
      <field name="usb.transfer_flags.no_fsbr" showname=".... .... .... .... .... .... ..0. .... = No FSBR: False" size="4" pos="56" show="0" value="0" unmaskedvalue="00020000"/>
      <field name="usb.transfer_flags.zero_packet" showname=".... .... .... .... .... .... .0.. .... = Zero Packet: False" size="4" pos="56" show="0" value="0" unmaskedvalue="00020000"/>
      <field name="usb.transfer_flags.no_interrupt" showname=".... .... .... .... .... .... 0... .... = No Interrupt: False" size="4" pos="56" show="0" value="0" unmaskedvalue="00020000"/>
      <field name="usb.transfer_flags.free_buffer" showname=".... .... .... .... .... ...0 .... .... = Free Buffer: False" size="4" pos="56" show="0" value="0" unmaskedvalue="00020000"/>
      <field name="usb.transfer_flags.dir_in" showname=".... .... .... .... .... ..1. .... .... = Dir IN: True" size="4" pos="56" show="1" value="1" unmaskedvalue="00020000"/>
      <field name="usb.transfer_flags.dma_map_single" showname=".... .... .... ...0 .... .... .... .... = DMA Map Single: False" size="4" pos="56" show="0" value="0" unmaskedvalue="00020000"/>
      <field name="usb.transfer_flags.dma_map_page" showname=".... .... .... ..0. .... .... .... .... = DMA Map Page: False" size="4" pos="56" show="0" value="0" unmaskedvalue="00020000"/>
      <field name="usb.transfer_flags.dma_map_sg" showname=".... .... .... .0.. .... .... .... .... = DMA Map SG: False" size="4" pos="56" show="0" value="0" unmaskedvalue="00020000"/>
      <field name="usb.transfer_flags.map_local" showname=".... .... .... 0... .... .... .... .... = Map Local: False" size="4" pos="56" show="0" value="0" unmaskedvalue="00020000"/>
      <field name="usb.transfer_flags.setup_map_single" showname=".... .... ...0 .... .... .... .... .... = Setup Map Single: False" size="4" pos="56" show="0" value="0" unmaskedvalue="00020000"/>
      <field name="usb.transfer_flags.setup_map_local" showname=".... .... ..0. .... .... .... .... .... = Setup Map Local: False" size="4" pos="56" show="0" value="0" unmaskedvalue="00020000"/>
      <field name="usb.transfer_flags.dma_sg_combined" showname=".... .... .0.. .... .... .... .... .... = DMA S-G Combined: False" size="4" pos="56" show="0" value="0" unmaskedvalue="00020000"/>
      <field name="usb.transfer_flags.aligned_temp_buffer" showname=".... .... 0... .... .... .... .... .... = Aligned Temp Buffer: False" size="4" pos="56" show="0" value="0" unmaskedvalue="00020000"/>
    </field>
    <field name="usb.iso.numdesc" showname="Number of ISO descriptors: 0" size="4" pos="60" show="0" value="00000000"/>
  </proto>
</packet>

<packet>
  <proto name="geninfo" pos="0" showname="General information" size="65">
    <field name="num" pos="0" show="509" showname="Number" value="1fd" size="65"/>
    <field name="len" pos="0" show="65" showname="Frame Length" value="41" size="65"/>
    <field name="caplen" pos="0" show="65" showname="Captured Length" value="41" size="65"/>
    <field name="timestamp" pos="0" show="Jul 31, 2023 16:24:23.295543000 EDT" showname="Captured Time" value="1690835063.295543000" size="65"/>
  </proto>
  <proto name="frame" showname="Frame 509: 65 bytes on wire (520 bits), 65 bytes captured (520 bits) on interface usbmon1, id 0" size="65" pos="0">
    <field name="frame.section_number" showname="Section number: 1" size="0" pos="0" show="1"/>
    <field name="frame.interface_id" showname="Interface id: 0 (usbmon1)" size="0" pos="0" show="0">
      <field name="frame.interface_name" showname="Interface name: usbmon1" size="0" pos="0" show="usbmon1"/>
    </field>
    <field name="frame.encap_type" showname="Encapsulation type: USB packets with Linux header and padding (115)" size="0" pos="0" show="115"/>
    <field name="frame.time" showname="Arrival Time: Jul 31, 2023 16:24:23.295543000 EDT" size="0" pos="0" show="Jul 31, 2023 16:24:23.295543000 EDT"/>
    <field name="frame.offset_shift" showname="Time shift for this packet: 0.000000000 seconds" size="0" pos="0" show="0.000000000"/>
    <field name="frame.time_epoch" showname="Epoch Time: 1690835063.295543000 seconds" size="0" pos="0" show="1690835063.295543000"/>
    <field name="frame.time_delta" showname="Time delta from previous captured frame: 0.000075000 seconds" size="0" pos="0" show="0.000075000"/>
    <field name="frame.time_delta_displayed" showname="Time delta from previous displayed frame: 0.000075000 seconds" size="0" pos="0" show="0.000075000"/>
    <field name="frame.time_relative" showname="Time since reference or first frame: 8.162003000 seconds" size="0" pos="0" show="8.162003000"/>
    <field name="frame.number" showname="Frame Number: 509" size="0" pos="0" show="509"/>
    <field name="frame.len" showname="Frame Length: 65 bytes (520 bits)" size="0" pos="0" show="65"/>
    <field name="frame.cap_len" showname="Capture Length: 65 bytes (520 bits)" size="0" pos="0" show="65"/>
    <field name="frame.marked" showname="Frame is marked: False" size="0" pos="0" show="0"/>
    <field name="frame.ignored" showname="Frame is ignored: False" size="0" pos="0" show="0"/>
    <field name="frame.protocols" showname="Protocols in frame: usb" size="0" pos="0" show="usb"/>
  </proto>
  <proto name="usb" showname="USB URB" size="64" pos="0">
    <field name="usb.src" showname="Source: 1.14.3" size="0" pos="0" show="1.14.3"/>
    <field name="usb.addr" showname="Source or Destination: 1.14.3" hide="yes" size="0" pos="0" show="1.14.3"/>
    <field name="usb.dst" showname="Destination: host" size="0" pos="0" show="host"/>
    <field name="usb.addr" showname="Source or Destination: host" hide="yes" size="0" pos="0" show="host"/>
    <field name="usb.urb_id" showname="URB id: 0xffffa0f810db4f00" size="8" pos="0" show="0xffffa0f810db4f00" value="004fdb10f8a0ffff"/>
    <field name="usb.urb_type" showname="URB type: URB_COMPLETE (&#x27;C&#x27;)" size="1" pos="8" show="&#x27;C&#x27;" value="43"/>
    <field name="usb.transfer_type" showname="URB transfer type: URB_BULK (0x03)" size="1" pos="9" show="0x03" value="03"/>
    <field name="usb.endpoint_address" showname="Endpoint: 0x83, Direction: IN" size="1" pos="10" show="0x83" value="83">
      <field name="usb.endpoint_address.direction" showname="1... .... = Direction: IN (1)" size="1" pos="10" show="1" value="1" unmaskedvalue="83"/>
      <field name="usb.endpoint_address.number" showname=".... 0011 = Endpoint number: 3" size="1" pos="10" show="3" value="3" unmaskedvalue="83"/>
    </field>
    <field name="usb.device_address" showname="Device: 14" size="1" pos="11" show="14" value="0e"/>
    <field name="usb.bus_id" showname="URB bus id: 1" size="2" pos="12" show="1" value="0100"/>
    <field name="usb.setup_flag" showname="Device setup request: not relevant (&#x27;-&#x27;)" size="1" pos="14" show="&#x27;-&#x27;" value="2d"/>
    <field name="usb.data_flag" showname="Data: present (&#x27;\0&#x27;)" size="1" pos="15" show="&#x27;\0&#x27;" value="00"/>
    <field name="usb.urb_ts_sec" showname="URB sec: 1690835063" size="8" pos="16" show="1690835063" value="7718c86400000000"/>
    <field name="usb.urb_ts_usec" showname="URB usec: 295543" size="4" pos="24" show="295543" value="77820400"/>
    <field name="usb.urb_status" showname="URB status: Success (0)" size="4" pos="28" show="0" value="00000000"/>
    <field name="usb.urb_len" showname="URB length [bytes]: 1" size="4" pos="32" show="1" value="01000000"/>
    <field name="usb.data_len" showname="Data length [bytes]: 1" size="4" pos="36" show="1" value="01000000"/>
    <field name="usb.request_in" showname="Request in: 508" size="0" pos="0" show="508"/>
    <field name="usb.time" showname="Time from request: 0.000075000 seconds" size="0" pos="0" show="0.000075000"/>
    <field name="usb.bInterfaceClass" showname="bInterfaceClass: Unknown (0xffff)" size="0" pos="0" show="0xff"/>
    <field name="usb.unused_setup_header" showname="Unused Setup Header" size="8" pos="40" show="" value=""/>
    <field name="usb.interval" showname="Interval: 0" size="4" pos="48" show="0" value="00000000"/>
    <field name="usb.start_frame" showname="Start frame: 0" size="4" pos="52" show="0" value="00000000"/>
    <field name="usb.copy_of_transfer_flags" showname="Copy of Transfer Flags: 0x00000200, Dir IN" size="4" pos="56" show="0x00000200" value="00020000">
      <field name="usb.transfer_flags.short_not_ok" showname=".... .... .... .... .... .... .... ...0 = Short not OK: False" size="4" pos="56" show="0" value="0" unmaskedvalue="00020000"/>
      <field name="usb.transfer_flags.iso_asap" showname=".... .... .... .... .... .... .... ..0. = ISO ASAP: False" size="4" pos="56" show="0" value="0" unmaskedvalue="00020000"/>
      <field name="usb.transfer_flags.no_transfer_dma_map" showname=".... .... .... .... .... .... .... .0.. = No transfer DMA map: False" size="4" pos="56" show="0" value="0" unmaskedvalue="00020000"/>
      <field name="usb.transfer_flags.no_fsbr" showname=".... .... .... .... .... .... ..0. .... = No FSBR: False" size="4" pos="56" show="0" value="0" unmaskedvalue="00020000"/>
      <field name="usb.transfer_flags.zero_packet" showname=".... .... .... .... .... .... .0.. .... = Zero Packet: False" size="4" pos="56" show="0" value="0" unmaskedvalue="00020000"/>
      <field name="usb.transfer_flags.no_interrupt" showname=".... .... .... .... .... .... 0... .... = No Interrupt: False" size="4" pos="56" show="0" value="0" unmaskedvalue="00020000"/>
      <field name="usb.transfer_flags.free_buffer" showname=".... .... .... .... .... ...0 .... .... = Free Buffer: False" size="4" pos="56" show="0" value="0" unmaskedvalue="00020000"/>
      <field name="usb.transfer_flags.dir_in" showname=".... .... .... .... .... ..1. .... .... = Dir IN: True" size="4" pos="56" show="1" value="1" unmaskedvalue="00020000"/>
      <field name="usb.transfer_flags.dma_map_single" showname=".... .... .... ...0 .... .... .... .... = DMA Map Single: False" size="4" pos="56" show="0" value="0" unmaskedvalue="00020000"/>
      <field name="usb.transfer_flags.dma_map_page" showname=".... .... .... ..0. .... .... .... .... = DMA Map Page: False" size="4" pos="56" show="0" value="0" unmaskedvalue="00020000"/>
      <field name="usb.transfer_flags.dma_map_sg" showname=".... .... .... .0.. .... .... .... .... = DMA Map SG: False" size="4" pos="56" show="0" value="0" unmaskedvalue="00020000"/>
      <field name="usb.transfer_flags.map_local" showname=".... .... .... 0... .... .... .... .... = Map Local: False" size="4" pos="56" show="0" value="0" unmaskedvalue="00020000"/>
      <field name="usb.transfer_flags.setup_map_single" showname=".... .... ...0 .... .... .... .... .... = Setup Map Single: False" size="4" pos="56" show="0" value="0" unmaskedvalue="00020000"/>
      <field name="usb.transfer_flags.setup_map_local" showname=".... .... ..0. .... .... .... .... .... = Setup Map Local: False" size="4" pos="56" show="0" value="0" unmaskedvalue="00020000"/>
      <field name="usb.transfer_flags.dma_sg_combined" showname=".... .... .0.. .... .... .... .... .... = DMA S-G Combined: False" size="4" pos="56" show="0" value="0" unmaskedvalue="00020000"/>
      <field name="usb.transfer_flags.aligned_temp_buffer" showname=".... .... 0... .... .... .... .... .... = Aligned Temp Buffer: False" size="4" pos="56" show="0" value="0" unmaskedvalue="00020000"/>
    </field>
    <field name="usb.iso.numdesc" showname="Number of ISO descriptors: 0" size="4" pos="60" show="0" value="00000000"/>
  </proto>
  <proto name="fake-field-wrapper">
    <field name="usb.capdata" showname="Leftover Capture Data: 02" size="1" pos="64" show="02" value="02"/>
  </proto>
</packet>

<packet>
  <proto name="geninfo" pos="0" showname="General information" size="64">
    <field name="num" pos="0" show="510" showname="Number" value="1fe" size="64"/>
    <field name="len" pos="0" show="64" showname="Frame Length" value="40" size="64"/>
    <field name="caplen" pos="0" show="64" showname="Captured Length" value="40" size="64"/>
    <field name="timestamp" pos="0" show="Jul 31, 2023 16:24:23.295870000 EDT" showname="Captured Time" value="1690835063.295870000" size="64"/>
  </proto>
  <proto name="frame" showname="Frame 510: 64 bytes on wire (512 bits), 64 bytes captured (512 bits) on interface usbmon1, id 0" size="64" pos="0">
    <field name="frame.section_number" showname="Section number: 1" size="0" pos="0" show="1"/>
    <field name="frame.interface_id" showname="Interface id: 0 (usbmon1)" size="0" pos="0" show="0">
      <field name="frame.interface_name" showname="Interface name: usbmon1" size="0" pos="0" show="usbmon1"/>
    </field>
    <field name="frame.encap_type" showname="Encapsulation type: USB packets with Linux header and padding (115)" size="0" pos="0" show="115"/>
    <field name="frame.time" showname="Arrival Time: Jul 31, 2023 16:24:23.295870000 EDT" size="0" pos="0" show="Jul 31, 2023 16:24:23.295870000 EDT"/>
    <field name="frame.offset_shift" showname="Time shift for this packet: 0.000000000 seconds" size="0" pos="0" show="0.000000000"/>
    <field name="frame.time_epoch" showname="Epoch Time: 1690835063.295870000 seconds" size="0" pos="0" show="1690835063.295870000"/>
    <field name="frame.time_delta" showname="Time delta from previous captured frame: 0.000327000 seconds" size="0" pos="0" show="0.000327000"/>
    <field name="frame.time_delta_displayed" showname="Time delta from previous displayed frame: 0.000327000 seconds" size="0" pos="0" show="0.000327000"/>
    <field name="frame.time_relative" showname="Time since reference or first frame: 8.162330000 seconds" size="0" pos="0" show="8.162330000"/>
    <field name="frame.number" showname="Frame Number: 510" size="0" pos="0" show="510"/>
    <field name="frame.len" showname="Frame Length: 64 bytes (512 bits)" size="0" pos="0" show="64"/>
    <field name="frame.cap_len" showname="Capture Length: 64 bytes (512 bits)" size="0" pos="0" show="64"/>
    <field name="frame.marked" showname="Frame is marked: False" size="0" pos="0" show="0"/>
    <field name="frame.ignored" showname="Frame is ignored: False" size="0" pos="0" show="0"/>
    <field name="frame.protocols" showname="Protocols in frame: usb" size="0" pos="0" show="usb"/>
  </proto>
  <proto name="usb" showname="USB URB" size="64" pos="0">
    <field name="usb.src" showname="Source: host" size="0" pos="0" show="host"/>
    <field name="usb.addr" showname="Source or Destination: host" hide="yes" size="0" pos="0" show="host"/>
    <field name="usb.dst" showname="Destination: 1.14.3" size="0" pos="0" show="1.14.3"/>
    <field name="usb.addr" showname="Source or Destination: 1.14.3" hide="yes" size="0" pos="0" show="1.14.3"/>
    <field name="usb.urb_id" showname="URB id: 0xffffa0f810db5800" size="8" pos="0" show="0xffffa0f810db5800" value="0058db10f8a0ffff"/>
    <field name="usb.urb_type" showname="URB type: URB_SUBMIT (&#x27;S&#x27;)" size="1" pos="8" show="&#x27;S&#x27;" value="53"/>
    <field name="usb.transfer_type" showname="URB transfer type: URB_BULK (0x03)" size="1" pos="9" show="0x03" value="03"/>
    <field name="usb.endpoint_address" showname="Endpoint: 0x83, Direction: IN" size="1" pos="10" show="0x83" value="83">
      <field name="usb.endpoint_address.direction" showname="1... .... = Direction: IN (1)" size="1" pos="10" show="1" value="1" unmaskedvalue="83"/>
      <field name="usb.endpoint_address.number" showname=".... 0011 = Endpoint number: 3" size="1" pos="10" show="3" value="3" unmaskedvalue="83"/>
    </field>
    <field name="usb.device_address" showname="Device: 14" size="1" pos="11" show="14" value="0e"/>
    <field name="usb.bus_id" showname="URB bus id: 1" size="2" pos="12" show="1" value="0100"/>
    <field name="usb.setup_flag" showname="Device setup request: not relevant (&#x27;-&#x27;)" size="1" pos="14" show="&#x27;-&#x27;" value="2d"/>
    <field name="usb.data_flag" showname="Data: not present (&#x27;&lt;&#x27;)" size="1" pos="15" show="&#x27;&lt;&#x27;" value="3c"/>
    <field name="usb.urb_ts_sec" showname="URB sec: 1690835063" size="8" pos="16" show="1690835063" value="7718c86400000000"/>
    <field name="usb.urb_ts_usec" showname="URB usec: 295870" size="4" pos="24" show="295870" value="be830400"/>
    <field name="usb.urb_status" showname="URB status: Operation now in progress (-EINPROGRESS) (-115)" size="4" pos="28" show="-115" value="8dffffff"/>
    <field name="usb.urb_len" showname="URB length [bytes]: 64" size="4" pos="32" show="64" value="40000000"/>
    <field name="usb.data_len" showname="Data length [bytes]: 0" size="4" pos="36" show="0" value="00000000"/>
    <field name="usb.response_in" showname="Response in: 511" size="0" pos="0" show="511"/>
    <field name="usb.bInterfaceClass" showname="bInterfaceClass: Unknown (0xffff)" size="0" pos="0" show="0xff"/>
    <field name="usb.unused_setup_header" showname="Unused Setup Header" size="8" pos="40" show="" value=""/>
    <field name="usb.interval" showname="Interval: 0" size="4" pos="48" show="0" value="00000000"/>
    <field name="usb.start_frame" showname="Start frame: 0" size="4" pos="52" show="0" value="00000000"/>
    <field name="usb.copy_of_transfer_flags" showname="Copy of Transfer Flags: 0x00000200, Dir IN" size="4" pos="56" show="0x00000200" value="00020000">
      <field name="usb.transfer_flags.short_not_ok" showname=".... .... .... .... .... .... .... ...0 = Short not OK: False" size="4" pos="56" show="0" value="0" unmaskedvalue="00020000"/>
      <field name="usb.transfer_flags.iso_asap" showname=".... .... .... .... .... .... .... ..0. = ISO ASAP: False" size="4" pos="56" show="0" value="0" unmaskedvalue="00020000"/>
      <field name="usb.transfer_flags.no_transfer_dma_map" showname=".... .... .... .... .... .... .... .0.. = No transfer DMA map: False" size="4" pos="56" show="0" value="0" unmaskedvalue="00020000"/>
      <field name="usb.transfer_flags.no_fsbr" showname=".... .... .... .... .... .... ..0. .... = No FSBR: False" size="4" pos="56" show="0" value="0" unmaskedvalue="00020000"/>
      <field name="usb.transfer_flags.zero_packet" showname=".... .... .... .... .... .... .0.. .... = Zero Packet: False" size="4" pos="56" show="0" value="0" unmaskedvalue="00020000"/>
      <field name="usb.transfer_flags.no_interrupt" showname=".... .... .... .... .... .... 0... .... = No Interrupt: False" size="4" pos="56" show="0" value="0" unmaskedvalue="00020000"/>
      <field name="usb.transfer_flags.free_buffer" showname=".... .... .... .... .... ...0 .... .... = Free Buffer: False" size="4" pos="56" show="0" value="0" unmaskedvalue="00020000"/>
      <field name="usb.transfer_flags.dir_in" showname=".... .... .... .... .... ..1. .... .... = Dir IN: True" size="4" pos="56" show="1" value="1" unmaskedvalue="00020000"/>
      <field name="usb.transfer_flags.dma_map_single" showname=".... .... .... ...0 .... .... .... .... = DMA Map Single: False" size="4" pos="56" show="0" value="0" unmaskedvalue="00020000"/>
      <field name="usb.transfer_flags.dma_map_page" showname=".... .... .... ..0. .... .... .... .... = DMA Map Page: False" size="4" pos="56" show="0" value="0" unmaskedvalue="00020000"/>
      <field name="usb.transfer_flags.dma_map_sg" showname=".... .... .... .0.. .... .... .... .... = DMA Map SG: False" size="4" pos="56" show="0" value="0" unmaskedvalue="00020000"/>
      <field name="usb.transfer_flags.map_local" showname=".... .... .... 0... .... .... .... .... = Map Local: False" size="4" pos="56" show="0" value="0" unmaskedvalue="00020000"/>
      <field name="usb.transfer_flags.setup_map_single" showname=".... .... ...0 .... .... .... .... .... = Setup Map Single: False" size="4" pos="56" show="0" value="0" unmaskedvalue="00020000"/>
      <field name="usb.transfer_flags.setup_map_local" showname=".... .... ..0. .... .... .... .... .... = Setup Map Local: False" size="4" pos="56" show="0" value="0" unmaskedvalue="00020000"/>
      <field name="usb.transfer_flags.dma_sg_combined" showname=".... .... .0.. .... .... .... .... .... = DMA S-G Combined: False" size="4" pos="56" show="0" value="0" unmaskedvalue="00020000"/>
      <field name="usb.transfer_flags.aligned_temp_buffer" showname=".... .... 0... .... .... .... .... .... = Aligned Temp Buffer: False" size="4" pos="56" show="0" value="0" unmaskedvalue="00020000"/>
    </field>
    <field name="usb.iso.numdesc" showname="Number of ISO descriptors: 0" size="4" pos="60" show="0" value="00000000"/>
  </proto>
</packet>

<packet>
  <proto name="geninfo" pos="0" showname="General information" size="66">
    <field name="num" pos="0" show="511" showname="Number" value="1ff" size="66"/>
    <field name="len" pos="0" show="66" showname="Frame Length" value="42" size="66"/>
    <field name="caplen" pos="0" show="66" showname="Captured Length" value="42" size="66"/>
    <field name="timestamp" pos="0" show="Jul 31, 2023 16:24:23.295924000 EDT" showname="Captured Time" value="1690835063.295924000" size="66"/>
  </proto>
  <proto name="frame" showname="Frame 511: 66 bytes on wire (528 bits), 66 bytes captured (528 bits) on interface usbmon1, id 0" size="66" pos="0">
    <field name="frame.section_number" showname="Section number: 1" size="0" pos="0" show="1"/>
    <field name="frame.interface_id" showname="Interface id: 0 (usbmon1)" size="0" pos="0" show="0">
      <field name="frame.interface_name" showname="Interface name: usbmon1" size="0" pos="0" show="usbmon1"/>
    </field>
    <field name="frame.encap_type" showname="Encapsulation type: USB packets with Linux header and padding (115)" size="0" pos="0" show="115"/>
    <field name="frame.time" showname="Arrival Time: Jul 31, 2023 16:24:23.295924000 EDT" size="0" pos="0" show="Jul 31, 2023 16:24:23.295924000 EDT"/>
    <field name="frame.offset_shift" showname="Time shift for this packet: 0.000000000 seconds" size="0" pos="0" show="0.000000000"/>
    <field name="frame.time_epoch" showname="Epoch Time: 1690835063.295924000 seconds" size="0" pos="0" show="1690835063.295924000"/>
    <field name="frame.time_delta" showname="Time delta from previous captured frame: 0.000054000 seconds" size="0" pos="0" show="0.000054000"/>
    <field name="frame.time_delta_displayed" showname="Time delta from previous displayed frame: 0.000054000 seconds" size="0" pos="0" show="0.000054000"/>
    <field name="frame.time_relative" showname="Time since reference or first frame: 8.162384000 seconds" size="0" pos="0" show="8.162384000"/>
    <field name="frame.number" showname="Frame Number: 511" size="0" pos="0" show="511"/>
    <field name="frame.len" showname="Frame Length: 66 bytes (528 bits)" size="0" pos="0" show="66"/>
    <field name="frame.cap_len" showname="Capture Length: 66 bytes (528 bits)" size="0" pos="0" show="66"/>
    <field name="frame.marked" showname="Frame is marked: False" size="0" pos="0" show="0"/>
    <field name="frame.ignored" showname="Frame is ignored: False" size="0" pos="0" show="0"/>
    <field name="frame.protocols" showname="Protocols in frame: usb" size="0" pos="0" show="usb"/>
  </proto>
  <proto name="usb" showname="USB URB" size="64" pos="0">
    <field name="usb.src" showname="Source: 1.14.3" size="0" pos="0" show="1.14.3"/>
    <field name="usb.addr" showname="Source or Destination: 1.14.3" hide="yes" size="0" pos="0" show="1.14.3"/>
    <field name="usb.dst" showname="Destination: host" size="0" pos="0" show="host"/>
    <field name="usb.addr" showname="Source or Destination: host" hide="yes" size="0" pos="0" show="host"/>
    <field name="usb.urb_id" showname="URB id: 0xffffa0f810db5800" size="8" pos="0" show="0xffffa0f810db5800" value="0058db10f8a0ffff"/>
    <field name="usb.urb_type" showname="URB type: URB_COMPLETE (&#x27;C&#x27;)" size="1" pos="8" show="&#x27;C&#x27;" value="43"/>
    <field name="usb.transfer_type" showname="URB transfer type: URB_BULK (0x03)" size="1" pos="9" show="0x03" value="03"/>
    <field name="usb.endpoint_address" showname="Endpoint: 0x83, Direction: IN" size="1" pos="10" show="0x83" value="83">
      <field name="usb.endpoint_address.direction" showname="1... .... = Direction: IN (1)" size="1" pos="10" show="1" value="1" unmaskedvalue="83"/>
      <field name="usb.endpoint_address.number" showname=".... 0011 = Endpoint number: 3" size="1" pos="10" show="3" value="3" unmaskedvalue="83"/>
    </field>
    <field name="usb.device_address" showname="Device: 14" size="1" pos="11" show="14" value="0e"/>
    <field name="usb.bus_id" showname="URB bus id: 1" size="2" pos="12" show="1" value="0100"/>
    <field name="usb.setup_flag" showname="Device setup request: not relevant (&#x27;-&#x27;)" size="1" pos="14" show="&#x27;-&#x27;" value="2d"/>
    <field name="usb.data_flag" showname="Data: present (&#x27;\0&#x27;)" size="1" pos="15" show="&#x27;\0&#x27;" value="00"/>
    <field name="usb.urb_ts_sec" showname="URB sec: 1690835063" size="8" pos="16" show="1690835063" value="7718c86400000000"/>
    <field name="usb.urb_ts_usec" showname="URB usec: 295924" size="4" pos="24" show="295924" value="f4830400"/>
    <field name="usb.urb_status" showname="URB status: Success (0)" size="4" pos="28" show="0" value="00000000"/>
    <field name="usb.urb_len" showname="URB length [bytes]: 2" size="4" pos="32" show="2" value="02000000"/>
    <field name="usb.data_len" showname="Data length [bytes]: 2" size="4" pos="36" show="2" value="02000000"/>
    <field name="usb.request_in" showname="Request in: 510" size="0" pos="0" show="510"/>
    <field name="usb.time" showname="Time from request: 0.000054000 seconds" size="0" pos="0" show="0.000054000"/>
    <field name="usb.bInterfaceClass" showname="bInterfaceClass: Unknown (0xffff)" size="0" pos="0" show="0xff"/>
    <field name="usb.unused_setup_header" showname="Unused Setup Header" size="8" pos="40" show="" value=""/>
    <field name="usb.interval" showname="Interval: 0" size="4" pos="48" show="0" value="00000000"/>
    <field name="usb.start_frame" showname="Start frame: 0" size="4" pos="52" show="0" value="00000000"/>
    <field name="usb.copy_of_transfer_flags" showname="Copy of Transfer Flags: 0x00000200, Dir IN" size="4" pos="56" show="0x00000200" value="00020000">
      <field name="usb.transfer_flags.short_not_ok" showname=".... .... .... .... .... .... .... ...0 = Short not OK: False" size="4" pos="56" show="0" value="0" unmaskedvalue="00020000"/>
      <field name="usb.transfer_flags.iso_asap" showname=".... .... .... .... .... .... .... ..0. = ISO ASAP: False" size="4" pos="56" show="0" value="0" unmaskedvalue="00020000"/>
      <field name="usb.transfer_flags.no_transfer_dma_map" showname=".... .... .... .... .... .... .... .0.. = No transfer DMA map: False" size="4" pos="56" show="0" value="0" unmaskedvalue="00020000"/>
      <field name="usb.transfer_flags.no_fsbr" showname=".... .... .... .... .... .... ..0. .... = No FSBR: False" size="4" pos="56" show="0" value="0" unmaskedvalue="00020000"/>
      <field name="usb.transfer_flags.zero_packet" showname=".... .... .... .... .... .... .0.. .... = Zero Packet: False" size="4" pos="56" show="0" value="0" unmaskedvalue="00020000"/>
      <field name="usb.transfer_flags.no_interrupt" showname=".... .... .... .... .... .... 0... .... = No Interrupt: False" size="4" pos="56" show="0" value="0" unmaskedvalue="00020000"/>
      <field name="usb.transfer_flags.free_buffer" showname=".... .... .... .... .... ...0 .... .... = Free Buffer: False" size="4" pos="56" show="0" value="0" unmaskedvalue="00020000"/>
      <field name="usb.transfer_flags.dir_in" showname=".... .... .... .... .... ..1. .... .... = Dir IN: True" size="4" pos="56" show="1" value="1" unmaskedvalue="00020000"/>
      <field name="usb.transfer_flags.dma_map_single" showname=".... .... .... ...0 .... .... .... .... = DMA Map Single: False" size="4" pos="56" show="0" value="0" unmaskedvalue="00020000"/>
      <field name="usb.transfer_flags.dma_map_page" showname=".... .... .... ..0. .... .... .... .... = DMA Map Page: False" size="4" pos="56" show="0" value="0" unmaskedvalue="00020000"/>
      <field name="usb.transfer_flags.dma_map_sg" showname=".... .... .... .0.. .... .... .... .... = DMA Map SG: False" size="4" pos="56" show="0" value="0" unmaskedvalue="00020000"/>
      <field name="usb.transfer_flags.map_local" showname=".... .... .... 0... .... .... .... .... = Map Local: False" size="4" pos="56" show="0" value="0" unmaskedvalue="00020000"/>
      <field name="usb.transfer_flags.setup_map_single" showname=".... .... ...0 .... .... .... .... .... = Setup Map Single: False" size="4" pos="56" show="0" value="0" unmaskedvalue="00020000"/>
      <field name="usb.transfer_flags.setup_map_local" showname=".... .... ..0. .... .... .... .... .... = Setup Map Local: False" size="4" pos="56" show="0" value="0" unmaskedvalue="00020000"/>
      <field name="usb.transfer_flags.dma_sg_combined" showname=".... .... .0.. .... .... .... .... .... = DMA S-G Combined: False" size="4" pos="56" show="0" value="0" unmaskedvalue="00020000"/>
      <field name="usb.transfer_flags.aligned_temp_buffer" showname=".... .... 0... .... .... .... .... .... = Aligned Temp Buffer: False" size="4" pos="56" show="0" value="0" unmaskedvalue="00020000"/>
    </field>
    <field name="usb.iso.numdesc" showname="Number of ISO descriptors: 0" size="4" pos="60" show="0" value="00000000"/>
  </proto>
  <proto name="fake-field-wrapper">
    <field name="usb.capdata" showname="Leftover Capture Data: 012d" size="2" pos="64" show="01:2d" value="012d"/>
  </proto>
</packet>

<packet>
  <proto name="geninfo" pos="0" showname="General information" size="64">
    <field name="num" pos="0" show="512" showname="Number" value="200" size="64"/>
    <field name="len" pos="0" show="64" showname="Frame Length" value="40" size="64"/>
    <field name="caplen" pos="0" show="64" showname="Captured Length" value="40" size="64"/>
    <field name="timestamp" pos="0" show="Jul 31, 2023 16:24:23.296169000 EDT" showname="Captured Time" value="1690835063.296169000" size="64"/>
  </proto>
  <proto name="frame" showname="Frame 512: 64 bytes on wire (512 bits), 64 bytes captured (512 bits) on interface usbmon1, id 0" size="64" pos="0">
    <field name="frame.section_number" showname="Section number: 1" size="0" pos="0" show="1"/>
    <field name="frame.interface_id" showname="Interface id: 0 (usbmon1)" size="0" pos="0" show="0">
      <field name="frame.interface_name" showname="Interface name: usbmon1" size="0" pos="0" show="usbmon1"/>
    </field>
    <field name="frame.encap_type" showname="Encapsulation type: USB packets with Linux header and padding (115)" size="0" pos="0" show="115"/>
    <field name="frame.time" showname="Arrival Time: Jul 31, 2023 16:24:23.296169000 EDT" size="0" pos="0" show="Jul 31, 2023 16:24:23.296169000 EDT"/>
    <field name="frame.offset_shift" showname="Time shift for this packet: 0.000000000 seconds" size="0" pos="0" show="0.000000000"/>
    <field name="frame.time_epoch" showname="Epoch Time: 1690835063.296169000 seconds" size="0" pos="0" show="1690835063.296169000"/>
    <field name="frame.time_delta" showname="Time delta from previous captured frame: 0.000245000 seconds" size="0" pos="0" show="0.000245000"/>
    <field name="frame.time_delta_displayed" showname="Time delta from previous displayed frame: 0.000245000 seconds" size="0" pos="0" show="0.000245000"/>
    <field name="frame.time_relative" showname="Time since reference or first frame: 8.162629000 seconds" size="0" pos="0" show="8.162629000"/>
    <field name="frame.number" showname="Frame Number: 512" size="0" pos="0" show="512"/>
    <field name="frame.len" showname="Frame Length: 64 bytes (512 bits)" size="0" pos="0" show="64"/>
    <field name="frame.cap_len" showname="Capture Length: 64 bytes (512 bits)" size="0" pos="0" show="64"/>
    <field name="frame.marked" showname="Frame is marked: False" size="0" pos="0" show="0"/>
    <field name="frame.ignored" showname="Frame is ignored: False" size="0" pos="0" show="0"/>
    <field name="frame.protocols" showname="Protocols in frame: usb" size="0" pos="0" show="usb"/>
  </proto>
  <proto name="usb" showname="USB URB" size="64" pos="0">
    <field name="usb.src" showname="Source: host" size="0" pos="0" show="host"/>
    <field name="usb.addr" showname="Source or Destination: host" hide="yes" size="0" pos="0" show="host"/>
    <field name="usb.dst" showname="Destination: 1.14.3" size="0" pos="0" show="1.14.3"/>
    <field name="usb.addr" showname="Source or Destination: 1.14.3" hide="yes" size="0" pos="0" show="1.14.3"/>
    <field name="usb.urb_id" showname="URB id: 0xffffa0f810db4fc0" size="8" pos="0" show="0xffffa0f810db4fc0" value="c04fdb10f8a0ffff"/>
    <field name="usb.urb_type" showname="URB type: URB_SUBMIT (&#x27;S&#x27;)" size="1" pos="8" show="&#x27;S&#x27;" value="53"/>
    <field name="usb.transfer_type" showname="URB transfer type: URB_BULK (0x03)" size="1" pos="9" show="0x03" value="03"/>
    <field name="usb.endpoint_address" showname="Endpoint: 0x83, Direction: IN" size="1" pos="10" show="0x83" value="83">
      <field name="usb.endpoint_address.direction" showname="1... .... = Direction: IN (1)" size="1" pos="10" show="1" value="1" unmaskedvalue="83"/>
      <field name="usb.endpoint_address.number" showname=".... 0011 = Endpoint number: 3" size="1" pos="10" show="3" value="3" unmaskedvalue="83"/>
    </field>
    <field name="usb.device_address" showname="Device: 14" size="1" pos="11" show="14" value="0e"/>
    <field name="usb.bus_id" showname="URB bus id: 1" size="2" pos="12" show="1" value="0100"/>
    <field name="usb.setup_flag" showname="Device setup request: not relevant (&#x27;-&#x27;)" size="1" pos="14" show="&#x27;-&#x27;" value="2d"/>
    <field name="usb.data_flag" showname="Data: not present (&#x27;&lt;&#x27;)" size="1" pos="15" show="&#x27;&lt;&#x27;" value="3c"/>
    <field name="usb.urb_ts_sec" showname="URB sec: 1690835063" size="8" pos="16" show="1690835063" value="7718c86400000000"/>
    <field name="usb.urb_ts_usec" showname="URB usec: 296169" size="4" pos="24" show="296169" value="e9840400"/>
    <field name="usb.urb_status" showname="URB status: Operation now in progress (-EINPROGRESS) (-115)" size="4" pos="28" show="-115" value="8dffffff"/>
    <field name="usb.urb_len" showname="URB length [bytes]: 64" size="4" pos="32" show="64" value="40000000"/>
    <field name="usb.data_len" showname="Data length [bytes]: 0" size="4" pos="36" show="0" value="00000000"/>
    <field name="usb.response_in" showname="Response in: 513" size="0" pos="0" show="513"/>
    <field name="usb.bInterfaceClass" showname="bInterfaceClass: Unknown (0xffff)" size="0" pos="0" show="0xff"/>
    <field name="usb.unused_setup_header" showname="Unused Setup Header" size="8" pos="40" show="" value=""/>
    <field name="usb.interval" showname="Interval: 0" size="4" pos="48" show="0" value="00000000"/>
    <field name="usb.start_frame" showname="Start frame: 0" size="4" pos="52" show="0" value="00000000"/>
    <field name="usb.copy_of_transfer_flags" showname="Copy of Transfer Flags: 0x00000200, Dir IN" size="4" pos="56" show="0x00000200" value="00020000">
      <field name="usb.transfer_flags.short_not_ok" showname=".... .... .... .... .... .... .... ...0 = Short not OK: False" size="4" pos="56" show="0" value="0" unmaskedvalue="00020000"/>
      <field name="usb.transfer_flags.iso_asap" showname=".... .... .... .... .... .... .... ..0. = ISO ASAP: False" size="4" pos="56" show="0" value="0" unmaskedvalue="00020000"/>
      <field name="usb.transfer_flags.no_transfer_dma_map" showname=".... .... .... .... .... .... .... .0.. = No transfer DMA map: False" size="4" pos="56" show="0" value="0" unmaskedvalue="00020000"/>
      <field name="usb.transfer_flags.no_fsbr" showname=".... .... .... .... .... .... ..0. .... = No FSBR: False" size="4" pos="56" show="0" value="0" unmaskedvalue="00020000"/>
      <field name="usb.transfer_flags.zero_packet" showname=".... .... .... .... .... .... .0.. .... = Zero Packet: False" size="4" pos="56" show="0" value="0" unmaskedvalue="00020000"/>
      <field name="usb.transfer_flags.no_interrupt" showname=".... .... .... .... .... .... 0... .... = No Interrupt: False" size="4" pos="56" show="0" value="0" unmaskedvalue="00020000"/>
      <field name="usb.transfer_flags.free_buffer" showname=".... .... .... .... .... ...0 .... .... = Free Buffer: False" size="4" pos="56" show="0" value="0" unmaskedvalue="00020000"/>
      <field name="usb.transfer_flags.dir_in" showname=".... .... .... .... .... ..1. .... .... = Dir IN: True" size="4" pos="56" show="1" value="1" unmaskedvalue="00020000"/>
      <field name="usb.transfer_flags.dma_map_single" showname=".... .... .... ...0 .... .... .... .... = DMA Map Single: False" size="4" pos="56" show="0" value="0" unmaskedvalue="00020000"/>
      <field name="usb.transfer_flags.dma_map_page" showname=".... .... .... ..0. .... .... .... .... = DMA Map Page: False" size="4" pos="56" show="0" value="0" unmaskedvalue="00020000"/>
      <field name="usb.transfer_flags.dma_map_sg" showname=".... .... .... .0.. .... .... .... .... = DMA Map SG: False" size="4" pos="56" show="0" value="0" unmaskedvalue="00020000"/>
      <field name="usb.transfer_flags.map_local" showname=".... .... .... 0... .... .... .... .... = Map Local: False" size="4" pos="56" show="0" value="0" unmaskedvalue="00020000"/>
      <field name="usb.transfer_flags.setup_map_single" showname=".... .... ...0 .... .... .... .... .... = Setup Map Single: False" size="4" pos="56" show="0" value="0" unmaskedvalue="00020000"/>
      <field name="usb.transfer_flags.setup_map_local" showname=".... .... ..0. .... .... .... .... .... = Setup Map Local: False" size="4" pos="56" show="0" value="0" unmaskedvalue="00020000"/>
      <field name="usb.transfer_flags.dma_sg_combined" showname=".... .... .0.. .... .... .... .... .... = DMA S-G Combined: False" size="4" pos="56" show="0" value="0" unmaskedvalue="00020000"/>
      <field name="usb.transfer_flags.aligned_temp_buffer" showname=".... .... 0... .... .... .... .... .... = Aligned Temp Buffer: False" size="4" pos="56" show="0" value="0" unmaskedvalue="00020000"/>
    </field>
    <field name="usb.iso.numdesc" showname="Number of ISO descriptors: 0" size="4" pos="60" show="0" value="00000000"/>
  </proto>
</packet>

<packet>
  <proto name="geninfo" pos="0" showname="General information" size="65">
    <field name="num" pos="0" show="513" showname="Number" value="201" size="65"/>
    <field name="len" pos="0" show="65" showname="Frame Length" value="41" size="65"/>
    <field name="caplen" pos="0" show="65" showname="Captured Length" value="41" size="65"/>
    <field name="timestamp" pos="0" show="Jul 31, 2023 16:24:23.296223000 EDT" showname="Captured Time" value="1690835063.296223000" size="65"/>
  </proto>
  <proto name="frame" showname="Frame 513: 65 bytes on wire (520 bits), 65 bytes captured (520 bits) on interface usbmon1, id 0" size="65" pos="0">
    <field name="frame.section_number" showname="Section number: 1" size="0" pos="0" show="1"/>
    <field name="frame.interface_id" showname="Interface id: 0 (usbmon1)" size="0" pos="0" show="0">
      <field name="frame.interface_name" showname="Interface name: usbmon1" size="0" pos="0" show="usbmon1"/>
    </field>
    <field name="frame.encap_type" showname="Encapsulation type: USB packets with Linux header and padding (115)" size="0" pos="0" show="115"/>
    <field name="frame.time" showname="Arrival Time: Jul 31, 2023 16:24:23.296223000 EDT" size="0" pos="0" show="Jul 31, 2023 16:24:23.296223000 EDT"/>
    <field name="frame.offset_shift" showname="Time shift for this packet: 0.000000000 seconds" size="0" pos="0" show="0.000000000"/>
    <field name="frame.time_epoch" showname="Epoch Time: 1690835063.296223000 seconds" size="0" pos="0" show="1690835063.296223000"/>
    <field name="frame.time_delta" showname="Time delta from previous captured frame: 0.000054000 seconds" size="0" pos="0" show="0.000054000"/>
    <field name="frame.time_delta_displayed" showname="Time delta from previous displayed frame: 0.000054000 seconds" size="0" pos="0" show="0.000054000"/>
    <field name="frame.time_relative" showname="Time since reference or first frame: 8.162683000 seconds" size="0" pos="0" show="8.162683000"/>
    <field name="frame.number" showname="Frame Number: 513" size="0" pos="0" show="513"/>
    <field name="frame.len" showname="Frame Length: 65 bytes (520 bits)" size="0" pos="0" show="65"/>
    <field name="frame.cap_len" showname="Capture Length: 65 bytes (520 bits)" size="0" pos="0" show="65"/>
    <field name="frame.marked" showname="Frame is marked: False" size="0" pos="0" show="0"/>
    <field name="frame.ignored" showname="Frame is ignored: False" size="0" pos="0" show="0"/>
    <field name="frame.protocols" showname="Protocols in frame: usb" size="0" pos="0" show="usb"/>
  </proto>
  <proto name="usb" showname="USB URB" size="64" pos="0">
    <field name="usb.src" showname="Source: 1.14.3" size="0" pos="0" show="1.14.3"/>
    <field name="usb.addr" showname="Source or Destination: 1.14.3" hide="yes" size="0" pos="0" show="1.14.3"/>
    <field name="usb.dst" showname="Destination: host" size="0" pos="0" show="host"/>
    <field name="usb.addr" showname="Source or Destination: host" hide="yes" size="0" pos="0" show="host"/>
    <field name="usb.urb_id" showname="URB id: 0xffffa0f810db4fc0" size="8" pos="0" show="0xffffa0f810db4fc0" value="c04fdb10f8a0ffff"/>
    <field name="usb.urb_type" showname="URB type: URB_COMPLETE (&#x27;C&#x27;)" size="1" pos="8" show="&#x27;C&#x27;" value="43"/>
    <field name="usb.transfer_type" showname="URB transfer type: URB_BULK (0x03)" size="1" pos="9" show="0x03" value="03"/>
    <field name="usb.endpoint_address" showname="Endpoint: 0x83, Direction: IN" size="1" pos="10" show="0x83" value="83">
      <field name="usb.endpoint_address.direction" showname="1... .... = Direction: IN (1)" size="1" pos="10" show="1" value="1" unmaskedvalue="83"/>
      <field name="usb.endpoint_address.number" showname=".... 0011 = Endpoint number: 3" size="1" pos="10" show="3" value="3" unmaskedvalue="83"/>
    </field>
    <field name="usb.device_address" showname="Device: 14" size="1" pos="11" show="14" value="0e"/>
    <field name="usb.bus_id" showname="URB bus id: 1" size="2" pos="12" show="1" value="0100"/>
    <field name="usb.setup_flag" showname="Device setup request: not relevant (&#x27;-&#x27;)" size="1" pos="14" show="&#x27;-&#x27;" value="2d"/>
    <field name="usb.data_flag" showname="Data: present (&#x27;\0&#x27;)" size="1" pos="15" show="&#x27;\0&#x27;" value="00"/>
    <field name="usb.urb_ts_sec" showname="URB sec: 1690835063" size="8" pos="16" show="1690835063" value="7718c86400000000"/>
    <field name="usb.urb_ts_usec" showname="URB usec: 296223" size="4" pos="24" show="296223" value="1f850400"/>
    <field name="usb.urb_status" showname="URB status: Success (0)" size="4" pos="28" show="0" value="00000000"/>
    <field name="usb.urb_len" showname="URB length [bytes]: 1" size="4" pos="32" show="1" value="01000000"/>
    <field name="usb.data_len" showname="Data length [bytes]: 1" size="4" pos="36" show="1" value="01000000"/>
    <field name="usb.request_in" showname="Request in: 512" size="0" pos="0" show="512"/>
    <field name="usb.time" showname="Time from request: 0.000054000 seconds" size="0" pos="0" show="0.000054000"/>
    <field name="usb.bInterfaceClass" showname="bInterfaceClass: Unknown (0xffff)" size="0" pos="0" show="0xff"/>
    <field name="usb.unused_setup_header" showname="Unused Setup Header" size="8" pos="40" show="" value=""/>
    <field name="usb.interval" showname="Interval: 0" size="4" pos="48" show="0" value="00000000"/>
    <field name="usb.start_frame" showname="Start frame: 0" size="4" pos="52" show="0" value="00000000"/>
    <field name="usb.copy_of_transfer_flags" showname="Copy of Transfer Flags: 0x00000200, Dir IN" size="4" pos="56" show="0x00000200" value="00020000">
      <field name="usb.transfer_flags.short_not_ok" showname=".... .... .... .... .... .... .... ...0 = Short not OK: False" size="4" pos="56" show="0" value="0" unmaskedvalue="00020000"/>
      <field name="usb.transfer_flags.iso_asap" showname=".... .... .... .... .... .... .... ..0. = ISO ASAP: False" size="4" pos="56" show="0" value="0" unmaskedvalue="00020000"/>
      <field name="usb.transfer_flags.no_transfer_dma_map" showname=".... .... .... .... .... .... .... .0.. = No transfer DMA map: False" size="4" pos="56" show="0" value="0" unmaskedvalue="00020000"/>
      <field name="usb.transfer_flags.no_fsbr" showname=".... .... .... .... .... .... ..0. .... = No FSBR: False" size="4" pos="56" show="0" value="0" unmaskedvalue="00020000"/>
      <field name="usb.transfer_flags.zero_packet" showname=".... .... .... .... .... .... .0.. .... = Zero Packet: False" size="4" pos="56" show="0" value="0" unmaskedvalue="00020000"/>
      <field name="usb.transfer_flags.no_interrupt" showname=".... .... .... .... .... .... 0... .... = No Interrupt: False" size="4" pos="56" show="0" value="0" unmaskedvalue="00020000"/>
      <field name="usb.transfer_flags.free_buffer" showname=".... .... .... .... .... ...0 .... .... = Free Buffer: False" size="4" pos="56" show="0" value="0" unmaskedvalue="00020000"/>
      <field name="usb.transfer_flags.dir_in" showname=".... .... .... .... .... ..1. .... .... = Dir IN: True" size="4" pos="56" show="1" value="1" unmaskedvalue="00020000"/>
      <field name="usb.transfer_flags.dma_map_single" showname=".... .... .... ...0 .... .... .... .... = DMA Map Single: False" size="4" pos="56" show="0" value="0" unmaskedvalue="00020000"/>
      <field name="usb.transfer_flags.dma_map_page" showname=".... .... .... ..0. .... .... .... .... = DMA Map Page: False" size="4" pos="56" show="0" value="0" unmaskedvalue="00020000"/>
      <field name="usb.transfer_flags.dma_map_sg" showname=".... .... .... .0.. .... .... .... .... = DMA Map SG: False" size="4" pos="56" show="0" value="0" unmaskedvalue="00020000"/>
      <field name="usb.transfer_flags.map_local" showname=".... .... .... 0... .... .... .... .... = Map Local: False" size="4" pos="56" show="0" value="0" unmaskedvalue="00020000"/>
      <field name="usb.transfer_flags.setup_map_single" showname=".... .... ...0 .... .... .... .... .... = Setup Map Single: False" size="4" pos="56" show="0" value="0" unmaskedvalue="00020000"/>
      <field name="usb.transfer_flags.setup_map_local" showname=".... .... ..0. .... .... .... .... .... = Setup Map Local: False" size="4" pos="56" show="0" value="0" unmaskedvalue="00020000"/>
      <field name="usb.transfer_flags.dma_sg_combined" showname=".... .... .0.. .... .... .... .... .... = DMA S-G Combined: False" size="4" pos="56" show="0" value="0" unmaskedvalue="00020000"/>
      <field name="usb.transfer_flags.aligned_temp_buffer" showname=".... .... 0... .... .... .... .... .... = Aligned Temp Buffer: False" size="4" pos="56" show="0" value="0" unmaskedvalue="00020000"/>
    </field>
    <field name="usb.iso.numdesc" showname="Number of ISO descriptors: 0" size="4" pos="60" show="0" value="00000000"/>
  </proto>
  <proto name="fake-field-wrapper">
    <field name="usb.capdata" showname="Leftover Capture Data: 50" size="1" pos="64" show="50" value="50"/>
  </proto>
</packet>

<packet>
  <proto name="geninfo" pos="0" showname="General information" size="64">
    <field name="num" pos="0" show="514" showname="Number" value="202" size="64"/>
    <field name="len" pos="0" show="64" showname="Frame Length" value="40" size="64"/>
    <field name="caplen" pos="0" show="64" showname="Captured Length" value="40" size="64"/>
    <field name="timestamp" pos="0" show="Jul 31, 2023 16:24:23.296458000 EDT" showname="Captured Time" value="1690835063.296458000" size="64"/>
  </proto>
  <proto name="frame" showname="Frame 514: 64 bytes on wire (512 bits), 64 bytes captured (512 bits) on interface usbmon1, id 0" size="64" pos="0">
    <field name="frame.section_number" showname="Section number: 1" size="0" pos="0" show="1"/>
    <field name="frame.interface_id" showname="Interface id: 0 (usbmon1)" size="0" pos="0" show="0">
      <field name="frame.interface_name" showname="Interface name: usbmon1" size="0" pos="0" show="usbmon1"/>
    </field>
    <field name="frame.encap_type" showname="Encapsulation type: USB packets with Linux header and padding (115)" size="0" pos="0" show="115"/>
    <field name="frame.time" showname="Arrival Time: Jul 31, 2023 16:24:23.296458000 EDT" size="0" pos="0" show="Jul 31, 2023 16:24:23.296458000 EDT"/>
    <field name="frame.offset_shift" showname="Time shift for this packet: 0.000000000 seconds" size="0" pos="0" show="0.000000000"/>
    <field name="frame.time_epoch" showname="Epoch Time: 1690835063.296458000 seconds" size="0" pos="0" show="1690835063.296458000"/>
    <field name="frame.time_delta" showname="Time delta from previous captured frame: 0.000235000 seconds" size="0" pos="0" show="0.000235000"/>
    <field name="frame.time_delta_displayed" showname="Time delta from previous displayed frame: 0.000235000 seconds" size="0" pos="0" show="0.000235000"/>
    <field name="frame.time_relative" showname="Time since reference or first frame: 8.162918000 seconds" size="0" pos="0" show="8.162918000"/>
    <field name="frame.number" showname="Frame Number: 514" size="0" pos="0" show="514"/>
    <field name="frame.len" showname="Frame Length: 64 bytes (512 bits)" size="0" pos="0" show="64"/>
    <field name="frame.cap_len" showname="Capture Length: 64 bytes (512 bits)" size="0" pos="0" show="64"/>
    <field name="frame.marked" showname="Frame is marked: False" size="0" pos="0" show="0"/>
    <field name="frame.ignored" showname="Frame is ignored: False" size="0" pos="0" show="0"/>
    <field name="frame.protocols" showname="Protocols in frame: usb" size="0" pos="0" show="usb"/>
  </proto>
  <proto name="usb" showname="USB URB" size="64" pos="0">
    <field name="usb.src" showname="Source: host" size="0" pos="0" show="host"/>
    <field name="usb.addr" showname="Source or Destination: host" hide="yes" size="0" pos="0" show="host"/>
    <field name="usb.dst" showname="Destination: 1.14.3" size="0" pos="0" show="1.14.3"/>
    <field name="usb.addr" showname="Source or Destination: 1.14.3" hide="yes" size="0" pos="0" show="1.14.3"/>
    <field name="usb.urb_id" showname="URB id: 0xffffa0f810db52c0" size="8" pos="0" show="0xffffa0f810db52c0" value="c052db10f8a0ffff"/>
    <field name="usb.urb_type" showname="URB type: URB_SUBMIT (&#x27;S&#x27;)" size="1" pos="8" show="&#x27;S&#x27;" value="53"/>
    <field name="usb.transfer_type" showname="URB transfer type: URB_BULK (0x03)" size="1" pos="9" show="0x03" value="03"/>
    <field name="usb.endpoint_address" showname="Endpoint: 0x83, Direction: IN" size="1" pos="10" show="0x83" value="83">
      <field name="usb.endpoint_address.direction" showname="1... .... = Direction: IN (1)" size="1" pos="10" show="1" value="1" unmaskedvalue="83"/>
      <field name="usb.endpoint_address.number" showname=".... 0011 = Endpoint number: 3" size="1" pos="10" show="3" value="3" unmaskedvalue="83"/>
    </field>
    <field name="usb.device_address" showname="Device: 14" size="1" pos="11" show="14" value="0e"/>
    <field name="usb.bus_id" showname="URB bus id: 1" size="2" pos="12" show="1" value="0100"/>
    <field name="usb.setup_flag" showname="Device setup request: not relevant (&#x27;-&#x27;)" size="1" pos="14" show="&#x27;-&#x27;" value="2d"/>
    <field name="usb.data_flag" showname="Data: not present (&#x27;&lt;&#x27;)" size="1" pos="15" show="&#x27;&lt;&#x27;" value="3c"/>
    <field name="usb.urb_ts_sec" showname="URB sec: 1690835063" size="8" pos="16" show="1690835063" value="7718c86400000000"/>
    <field name="usb.urb_ts_usec" showname="URB usec: 296458" size="4" pos="24" show="296458" value="0a860400"/>
    <field name="usb.urb_status" showname="URB status: Operation now in progress (-EINPROGRESS) (-115)" size="4" pos="28" show="-115" value="8dffffff"/>
    <field name="usb.urb_len" showname="URB length [bytes]: 64" size="4" pos="32" show="64" value="40000000"/>
    <field name="usb.data_len" showname="Data length [bytes]: 0" size="4" pos="36" show="0" value="00000000"/>
    <field name="usb.response_in" showname="Response in: 515" size="0" pos="0" show="515"/>
    <field name="usb.bInterfaceClass" showname="bInterfaceClass: Unknown (0xffff)" size="0" pos="0" show="0xff"/>
    <field name="usb.unused_setup_header" showname="Unused Setup Header" size="8" pos="40" show="" value=""/>
    <field name="usb.interval" showname="Interval: 0" size="4" pos="48" show="0" value="00000000"/>
    <field name="usb.start_frame" showname="Start frame: 0" size="4" pos="52" show="0" value="00000000"/>
    <field name="usb.copy_of_transfer_flags" showname="Copy of Transfer Flags: 0x00000200, Dir IN" size="4" pos="56" show="0x00000200" value="00020000">
      <field name="usb.transfer_flags.short_not_ok" showname=".... .... .... .... .... .... .... ...0 = Short not OK: False" size="4" pos="56" show="0" value="0" unmaskedvalue="00020000"/>
      <field name="usb.transfer_flags.iso_asap" showname=".... .... .... .... .... .... .... ..0. = ISO ASAP: False" size="4" pos="56" show="0" value="0" unmaskedvalue="00020000"/>
      <field name="usb.transfer_flags.no_transfer_dma_map" showname=".... .... .... .... .... .... .... .0.. = No transfer DMA map: False" size="4" pos="56" show="0" value="0" unmaskedvalue="00020000"/>
      <field name="usb.transfer_flags.no_fsbr" showname=".... .... .... .... .... .... ..0. .... = No FSBR: False" size="4" pos="56" show="0" value="0" unmaskedvalue="00020000"/>
      <field name="usb.transfer_flags.zero_packet" showname=".... .... .... .... .... .... .0.. .... = Zero Packet: False" size="4" pos="56" show="0" value="0" unmaskedvalue="00020000"/>
      <field name="usb.transfer_flags.no_interrupt" showname=".... .... .... .... .... .... 0... .... = No Interrupt: False" size="4" pos="56" show="0" value="0" unmaskedvalue="00020000"/>
      <field name="usb.transfer_flags.free_buffer" showname=".... .... .... .... .... ...0 .... .... = Free Buffer: False" size="4" pos="56" show="0" value="0" unmaskedvalue="00020000"/>
      <field name="usb.transfer_flags.dir_in" showname=".... .... .... .... .... ..1. .... .... = Dir IN: True" size="4" pos="56" show="1" value="1" unmaskedvalue="00020000"/>
      <field name="usb.transfer_flags.dma_map_single" showname=".... .... .... ...0 .... .... .... .... = DMA Map Single: False" size="4" pos="56" show="0" value="0" unmaskedvalue="00020000"/>
      <field name="usb.transfer_flags.dma_map_page" showname=".... .... .... ..0. .... .... .... .... = DMA Map Page: False" size="4" pos="56" show="0" value="0" unmaskedvalue="00020000"/>
      <field name="usb.transfer_flags.dma_map_sg" showname=".... .... .... .0.. .... .... .... .... = DMA Map SG: False" size="4" pos="56" show="0" value="0" unmaskedvalue="00020000"/>
      <field name="usb.transfer_flags.map_local" showname=".... .... .... 0... .... .... .... .... = Map Local: False" size="4" pos="56" show="0" value="0" unmaskedvalue="00020000"/>
      <field name="usb.transfer_flags.setup_map_single" showname=".... .... ...0 .... .... .... .... .... = Setup Map Single: False" size="4" pos="56" show="0" value="0" unmaskedvalue="00020000"/>
      <field name="usb.transfer_flags.setup_map_local" showname=".... .... ..0. .... .... .... .... .... = Setup Map Local: False" size="4" pos="56" show="0" value="0" unmaskedvalue="00020000"/>
      <field name="usb.transfer_flags.dma_sg_combined" showname=".... .... .0.. .... .... .... .... .... = DMA S-G Combined: False" size="4" pos="56" show="0" value="0" unmaskedvalue="00020000"/>
      <field name="usb.transfer_flags.aligned_temp_buffer" showname=".... .... 0... .... .... .... .... .... = Aligned Temp Buffer: False" size="4" pos="56" show="0" value="0" unmaskedvalue="00020000"/>
    </field>
    <field name="usb.iso.numdesc" showname="Number of ISO descriptors: 0" size="4" pos="60" show="0" value="00000000"/>
  </proto>
</packet>

<packet>
  <proto name="geninfo" pos="0" showname="General information" size="65">
    <field name="num" pos="0" show="515" showname="Number" value="203" size="65"/>
    <field name="len" pos="0" show="65" showname="Frame Length" value="41" size="65"/>
    <field name="caplen" pos="0" show="65" showname="Captured Length" value="41" size="65"/>
    <field name="timestamp" pos="0" show="Jul 31, 2023 16:24:23.296533000 EDT" showname="Captured Time" value="1690835063.296533000" size="65"/>
  </proto>
  <proto name="frame" showname="Frame 515: 65 bytes on wire (520 bits), 65 bytes captured (520 bits) on interface usbmon1, id 0" size="65" pos="0">
    <field name="frame.section_number" showname="Section number: 1" size="0" pos="0" show="1"/>
    <field name="frame.interface_id" showname="Interface id: 0 (usbmon1)" size="0" pos="0" show="0">
      <field name="frame.interface_name" showname="Interface name: usbmon1" size="0" pos="0" show="usbmon1"/>
    </field>
    <field name="frame.encap_type" showname="Encapsulation type: USB packets with Linux header and padding (115)" size="0" pos="0" show="115"/>
    <field name="frame.time" showname="Arrival Time: Jul 31, 2023 16:24:23.296533000 EDT" size="0" pos="0" show="Jul 31, 2023 16:24:23.296533000 EDT"/>
    <field name="frame.offset_shift" showname="Time shift for this packet: 0.000000000 seconds" size="0" pos="0" show="0.000000000"/>
    <field name="frame.time_epoch" showname="Epoch Time: 1690835063.296533000 seconds" size="0" pos="0" show="1690835063.296533000"/>
    <field name="frame.time_delta" showname="Time delta from previous captured frame: 0.000075000 seconds" size="0" pos="0" show="0.000075000"/>
    <field name="frame.time_delta_displayed" showname="Time delta from previous displayed frame: 0.000075000 seconds" size="0" pos="0" show="0.000075000"/>
    <field name="frame.time_relative" showname="Time since reference or first frame: 8.162993000 seconds" size="0" pos="0" show="8.162993000"/>
    <field name="frame.number" showname="Frame Number: 515" size="0" pos="0" show="515"/>
    <field name="frame.len" showname="Frame Length: 65 bytes (520 bits)" size="0" pos="0" show="65"/>
    <field name="frame.cap_len" showname="Capture Length: 65 bytes (520 bits)" size="0" pos="0" show="65"/>
    <field name="frame.marked" showname="Frame is marked: False" size="0" pos="0" show="0"/>
    <field name="frame.ignored" showname="Frame is ignored: False" size="0" pos="0" show="0"/>
    <field name="frame.protocols" showname="Protocols in frame: usb" size="0" pos="0" show="usb"/>
  </proto>
  <proto name="usb" showname="USB URB" size="64" pos="0">
    <field name="usb.src" showname="Source: 1.14.3" size="0" pos="0" show="1.14.3"/>
    <field name="usb.addr" showname="Source or Destination: 1.14.3" hide="yes" size="0" pos="0" show="1.14.3"/>
    <field name="usb.dst" showname="Destination: host" size="0" pos="0" show="host"/>
    <field name="usb.addr" showname="Source or Destination: host" hide="yes" size="0" pos="0" show="host"/>
    <field name="usb.urb_id" showname="URB id: 0xffffa0f810db52c0" size="8" pos="0" show="0xffffa0f810db52c0" value="c052db10f8a0ffff"/>
    <field name="usb.urb_type" showname="URB type: URB_COMPLETE (&#x27;C&#x27;)" size="1" pos="8" show="&#x27;C&#x27;" value="43"/>
    <field name="usb.transfer_type" showname="URB transfer type: URB_BULK (0x03)" size="1" pos="9" show="0x03" value="03"/>
    <field name="usb.endpoint_address" showname="Endpoint: 0x83, Direction: IN" size="1" pos="10" show="0x83" value="83">
      <field name="usb.endpoint_address.direction" showname="1... .... = Direction: IN (1)" size="1" pos="10" show="1" value="1" unmaskedvalue="83"/>
      <field name="usb.endpoint_address.number" showname=".... 0011 = Endpoint number: 3" size="1" pos="10" show="3" value="3" unmaskedvalue="83"/>
    </field>
    <field name="usb.device_address" showname="Device: 14" size="1" pos="11" show="14" value="0e"/>
    <field name="usb.bus_id" showname="URB bus id: 1" size="2" pos="12" show="1" value="0100"/>
    <field name="usb.setup_flag" showname="Device setup request: not relevant (&#x27;-&#x27;)" size="1" pos="14" show="&#x27;-&#x27;" value="2d"/>
    <field name="usb.data_flag" showname="Data: present (&#x27;\0&#x27;)" size="1" pos="15" show="&#x27;\0&#x27;" value="00"/>
    <field name="usb.urb_ts_sec" showname="URB sec: 1690835063" size="8" pos="16" show="1690835063" value="7718c86400000000"/>
    <field name="usb.urb_ts_usec" showname="URB usec: 296533" size="4" pos="24" show="296533" value="55860400"/>
    <field name="usb.urb_status" showname="URB status: Success (0)" size="4" pos="28" show="0" value="00000000"/>
    <field name="usb.urb_len" showname="URB length [bytes]: 1" size="4" pos="32" show="1" value="01000000"/>
    <field name="usb.data_len" showname="Data length [bytes]: 1" size="4" pos="36" show="1" value="01000000"/>
    <field name="usb.request_in" showname="Request in: 514" size="0" pos="0" show="514"/>
    <field name="usb.time" showname="Time from request: 0.000075000 seconds" size="0" pos="0" show="0.000075000"/>
    <field name="usb.bInterfaceClass" showname="bInterfaceClass: Unknown (0xffff)" size="0" pos="0" show="0xff"/>
    <field name="usb.unused_setup_header" showname="Unused Setup Header" size="8" pos="40" show="" value=""/>
    <field name="usb.interval" showname="Interval: 0" size="4" pos="48" show="0" value="00000000"/>
    <field name="usb.start_frame" showname="Start frame: 0" size="4" pos="52" show="0" value="00000000"/>
    <field name="usb.copy_of_transfer_flags" showname="Copy of Transfer Flags: 0x00000200, Dir IN" size="4" pos="56" show="0x00000200" value="00020000">
      <field name="usb.transfer_flags.short_not_ok" showname=".... .... .... .... .... .... .... ...0 = Short not OK: False" size="4" pos="56" show="0" value="0" unmaskedvalue="00020000"/>
      <field name="usb.transfer_flags.iso_asap" showname=".... .... .... .... .... .... .... ..0. = ISO ASAP: False" size="4" pos="56" show="0" value="0" unmaskedvalue="00020000"/>
      <field name="usb.transfer_flags.no_transfer_dma_map" showname=".... .... .... .... .... .... .... .0.. = No transfer DMA map: False" size="4" pos="56" show="0" value="0" unmaskedvalue="00020000"/>
      <field name="usb.transfer_flags.no_fsbr" showname=".... .... .... .... .... .... ..0. .... = No FSBR: False" size="4" pos="56" show="0" value="0" unmaskedvalue="00020000"/>
      <field name="usb.transfer_flags.zero_packet" showname=".... .... .... .... .... .... .0.. .... = Zero Packet: False" size="4" pos="56" show="0" value="0" unmaskedvalue="00020000"/>
      <field name="usb.transfer_flags.no_interrupt" showname=".... .... .... .... .... .... 0... .... = No Interrupt: False" size="4" pos="56" show="0" value="0" unmaskedvalue="00020000"/>
      <field name="usb.transfer_flags.free_buffer" showname=".... .... .... .... .... ...0 .... .... = Free Buffer: False" size="4" pos="56" show="0" value="0" unmaskedvalue="00020000"/>
      <field name="usb.transfer_flags.dir_in" showname=".... .... .... .... .... ..1. .... .... = Dir IN: True" size="4" pos="56" show="1" value="1" unmaskedvalue="00020000"/>
      <field name="usb.transfer_flags.dma_map_single" showname=".... .... .... ...0 .... .... .... .... = DMA Map Single: False" size="4" pos="56" show="0" value="0" unmaskedvalue="00020000"/>
      <field name="usb.transfer_flags.dma_map_page" showname=".... .... .... ..0. .... .... .... .... = DMA Map Page: False" size="4" pos="56" show="0" value="0" unmaskedvalue="00020000"/>
      <field name="usb.transfer_flags.dma_map_sg" showname=".... .... .... .0.. .... .... .... .... = DMA Map SG: False" size="4" pos="56" show="0" value="0" unmaskedvalue="00020000"/>
      <field name="usb.transfer_flags.map_local" showname=".... .... .... 0... .... .... .... .... = Map Local: False" size="4" pos="56" show="0" value="0" unmaskedvalue="00020000"/>
      <field name="usb.transfer_flags.setup_map_single" showname=".... .... ...0 .... .... .... .... .... = Setup Map Single: False" size="4" pos="56" show="0" value="0" unmaskedvalue="00020000"/>
      <field name="usb.transfer_flags.setup_map_local" showname=".... .... ..0. .... .... .... .... .... = Setup Map Local: False" size="4" pos="56" show="0" value="0" unmaskedvalue="00020000"/>
      <field name="usb.transfer_flags.dma_sg_combined" showname=".... .... .0.. .... .... .... .... .... = DMA S-G Combined: False" size="4" pos="56" show="0" value="0" unmaskedvalue="00020000"/>
      <field name="usb.transfer_flags.aligned_temp_buffer" showname=".... .... 0... .... .... .... .... .... = Aligned Temp Buffer: False" size="4" pos="56" show="0" value="0" unmaskedvalue="00020000"/>
    </field>
    <field name="usb.iso.numdesc" showname="Number of ISO descriptors: 0" size="4" pos="60" show="0" value="00000000"/>
  </proto>
  <proto name="fake-field-wrapper">
    <field name="usb.capdata" showname="Leftover Capture Data: 0c" size="1" pos="64" show="0c" value="0c"/>
  </proto>
</packet>

<packet>
  <proto name="geninfo" pos="0" showname="General information" size="64">
    <field name="num" pos="0" show="516" showname="Number" value="204" size="64"/>
    <field name="len" pos="0" show="64" showname="Frame Length" value="40" size="64"/>
    <field name="caplen" pos="0" show="64" showname="Captured Length" value="40" size="64"/>
    <field name="timestamp" pos="0" show="Jul 31, 2023 16:24:23.296809000 EDT" showname="Captured Time" value="1690835063.296809000" size="64"/>
  </proto>
  <proto name="frame" showname="Frame 516: 64 bytes on wire (512 bits), 64 bytes captured (512 bits) on interface usbmon1, id 0" size="64" pos="0">
    <field name="frame.section_number" showname="Section number: 1" size="0" pos="0" show="1"/>
    <field name="frame.interface_id" showname="Interface id: 0 (usbmon1)" size="0" pos="0" show="0">
      <field name="frame.interface_name" showname="Interface name: usbmon1" size="0" pos="0" show="usbmon1"/>
    </field>
    <field name="frame.encap_type" showname="Encapsulation type: USB packets with Linux header and padding (115)" size="0" pos="0" show="115"/>
    <field name="frame.time" showname="Arrival Time: Jul 31, 2023 16:24:23.296809000 EDT" size="0" pos="0" show="Jul 31, 2023 16:24:23.296809000 EDT"/>
    <field name="frame.offset_shift" showname="Time shift for this packet: 0.000000000 seconds" size="0" pos="0" show="0.000000000"/>
    <field name="frame.time_epoch" showname="Epoch Time: 1690835063.296809000 seconds" size="0" pos="0" show="1690835063.296809000"/>
    <field name="frame.time_delta" showname="Time delta from previous captured frame: 0.000276000 seconds" size="0" pos="0" show="0.000276000"/>
    <field name="frame.time_delta_displayed" showname="Time delta from previous displayed frame: 0.000276000 seconds" size="0" pos="0" show="0.000276000"/>
    <field name="frame.time_relative" showname="Time since reference or first frame: 8.163269000 seconds" size="0" pos="0" show="8.163269000"/>
    <field name="frame.number" showname="Frame Number: 516" size="0" pos="0" show="516"/>
    <field name="frame.len" showname="Frame Length: 64 bytes (512 bits)" size="0" pos="0" show="64"/>
    <field name="frame.cap_len" showname="Capture Length: 64 bytes (512 bits)" size="0" pos="0" show="64"/>
    <field name="frame.marked" showname="Frame is marked: False" size="0" pos="0" show="0"/>
    <field name="frame.ignored" showname="Frame is ignored: False" size="0" pos="0" show="0"/>
    <field name="frame.protocols" showname="Protocols in frame: usb" size="0" pos="0" show="usb"/>
  </proto>
  <proto name="usb" showname="USB URB" size="64" pos="0">
    <field name="usb.src" showname="Source: host" size="0" pos="0" show="host"/>
    <field name="usb.addr" showname="Source or Destination: host" hide="yes" size="0" pos="0" show="host"/>
    <field name="usb.dst" showname="Destination: 1.14.3" size="0" pos="0" show="1.14.3"/>
    <field name="usb.addr" showname="Source or Destination: 1.14.3" hide="yes" size="0" pos="0" show="1.14.3"/>
    <field name="usb.urb_id" showname="URB id: 0xffffa0f83cb32240" size="8" pos="0" show="0xffffa0f83cb32240" value="4022b33cf8a0ffff"/>
    <field name="usb.urb_type" showname="URB type: URB_SUBMIT (&#x27;S&#x27;)" size="1" pos="8" show="&#x27;S&#x27;" value="53"/>
    <field name="usb.transfer_type" showname="URB transfer type: URB_BULK (0x03)" size="1" pos="9" show="0x03" value="03"/>
    <field name="usb.endpoint_address" showname="Endpoint: 0x83, Direction: IN" size="1" pos="10" show="0x83" value="83">
      <field name="usb.endpoint_address.direction" showname="1... .... = Direction: IN (1)" size="1" pos="10" show="1" value="1" unmaskedvalue="83"/>
      <field name="usb.endpoint_address.number" showname=".... 0011 = Endpoint number: 3" size="1" pos="10" show="3" value="3" unmaskedvalue="83"/>
    </field>
    <field name="usb.device_address" showname="Device: 14" size="1" pos="11" show="14" value="0e"/>
    <field name="usb.bus_id" showname="URB bus id: 1" size="2" pos="12" show="1" value="0100"/>
    <field name="usb.setup_flag" showname="Device setup request: not relevant (&#x27;-&#x27;)" size="1" pos="14" show="&#x27;-&#x27;" value="2d"/>
    <field name="usb.data_flag" showname="Data: not present (&#x27;&lt;&#x27;)" size="1" pos="15" show="&#x27;&lt;&#x27;" value="3c"/>
    <field name="usb.urb_ts_sec" showname="URB sec: 1690835063" size="8" pos="16" show="1690835063" value="7718c86400000000"/>
    <field name="usb.urb_ts_usec" showname="URB usec: 296809" size="4" pos="24" show="296809" value="69870400"/>
    <field name="usb.urb_status" showname="URB status: Operation now in progress (-EINPROGRESS) (-115)" size="4" pos="28" show="-115" value="8dffffff"/>
    <field name="usb.urb_len" showname="URB length [bytes]: 64" size="4" pos="32" show="64" value="40000000"/>
    <field name="usb.data_len" showname="Data length [bytes]: 0" size="4" pos="36" show="0" value="00000000"/>
    <field name="usb.bInterfaceClass" showname="bInterfaceClass: Unknown (0xffff)" size="0" pos="0" show="0xff"/>
    <field name="usb.unused_setup_header" showname="Unused Setup Header" size="8" pos="40" show="" value=""/>
    <field name="usb.interval" showname="Interval: 0" size="4" pos="48" show="0" value="00000000"/>
    <field name="usb.start_frame" showname="Start frame: 0" size="4" pos="52" show="0" value="00000000"/>
    <field name="usb.copy_of_transfer_flags" showname="Copy of Transfer Flags: 0x00000200, Dir IN" size="4" pos="56" show="0x00000200" value="00020000">
      <field name="usb.transfer_flags.short_not_ok" showname=".... .... .... .... .... .... .... ...0 = Short not OK: False" size="4" pos="56" show="0" value="0" unmaskedvalue="00020000"/>
      <field name="usb.transfer_flags.iso_asap" showname=".... .... .... .... .... .... .... ..0. = ISO ASAP: False" size="4" pos="56" show="0" value="0" unmaskedvalue="00020000"/>
      <field name="usb.transfer_flags.no_transfer_dma_map" showname=".... .... .... .... .... .... .... .0.. = No transfer DMA map: False" size="4" pos="56" show="0" value="0" unmaskedvalue="00020000"/>
      <field name="usb.transfer_flags.no_fsbr" showname=".... .... .... .... .... .... ..0. .... = No FSBR: False" size="4" pos="56" show="0" value="0" unmaskedvalue="00020000"/>
      <field name="usb.transfer_flags.zero_packet" showname=".... .... .... .... .... .... .0.. .... = Zero Packet: False" size="4" pos="56" show="0" value="0" unmaskedvalue="00020000"/>
      <field name="usb.transfer_flags.no_interrupt" showname=".... .... .... .... .... .... 0... .... = No Interrupt: False" size="4" pos="56" show="0" value="0" unmaskedvalue="00020000"/>
      <field name="usb.transfer_flags.free_buffer" showname=".... .... .... .... .... ...0 .... .... = Free Buffer: False" size="4" pos="56" show="0" value="0" unmaskedvalue="00020000"/>
      <field name="usb.transfer_flags.dir_in" showname=".... .... .... .... .... ..1. .... .... = Dir IN: True" size="4" pos="56" show="1" value="1" unmaskedvalue="00020000"/>
      <field name="usb.transfer_flags.dma_map_single" showname=".... .... .... ...0 .... .... .... .... = DMA Map Single: False" size="4" pos="56" show="0" value="0" unmaskedvalue="00020000"/>
      <field name="usb.transfer_flags.dma_map_page" showname=".... .... .... ..0. .... .... .... .... = DMA Map Page: False" size="4" pos="56" show="0" value="0" unmaskedvalue="00020000"/>
      <field name="usb.transfer_flags.dma_map_sg" showname=".... .... .... .0.. .... .... .... .... = DMA Map SG: False" size="4" pos="56" show="0" value="0" unmaskedvalue="00020000"/>
      <field name="usb.transfer_flags.map_local" showname=".... .... .... 0... .... .... .... .... = Map Local: False" size="4" pos="56" show="0" value="0" unmaskedvalue="00020000"/>
      <field name="usb.transfer_flags.setup_map_single" showname=".... .... ...0 .... .... .... .... .... = Setup Map Single: False" size="4" pos="56" show="0" value="0" unmaskedvalue="00020000"/>
      <field name="usb.transfer_flags.setup_map_local" showname=".... .... ..0. .... .... .... .... .... = Setup Map Local: False" size="4" pos="56" show="0" value="0" unmaskedvalue="00020000"/>
      <field name="usb.transfer_flags.dma_sg_combined" showname=".... .... .0.. .... .... .... .... .... = DMA S-G Combined: False" size="4" pos="56" show="0" value="0" unmaskedvalue="00020000"/>
      <field name="usb.transfer_flags.aligned_temp_buffer" showname=".... .... 0... .... .... .... .... .... = Aligned Temp Buffer: False" size="4" pos="56" show="0" value="0" unmaskedvalue="00020000"/>
    </field>
    <field name="usb.iso.numdesc" showname="Number of ISO descriptors: 0" size="4" pos="60" show="0" value="00000000"/>
  </proto>
</packet>

</pdml>
